(dp0
I0
(dp1
I0
(dp2
S'TP_Vcal'
p3
I19
sS'TP_Vcal_ref'
p4
I23
sS'chip'
p5
I1
sS'stop'
p6
I18
sS'Ibias_TP_cal_diff'
p7
I24
sS'start'
p8
I0
sS'HW_FEB'
p9
S'5'
p10
ssI1
(dp11
g3
I16
sg4
I23
sg5
I2
sg6
I20
sg7
I24
sg8
I0
sg9
g10
ssI2
(dp12
g3
S'NA'
p13
sg4
g13
sg5
I0
sg6
g13
sg7
g13
sg8
g13
sg9
I20
ssI3
(dp14
g3
g13
sg4
g13
sg5
I1
sg6
g13
sg7
g13
sg8
g13
sg9
I20
ssI4
(dp15
g3
g13
sg4
g13
sg5
I0
sg6
g13
sg7
g13
sg8
g13
sg9
I6
ssI5
(dp16
g3
g13
sg4
g13
sg5
I1
sg6
g13
sg7
g13
sg8
g13
sg9
I6
ssI6
(dp17
g3
I25
sg4
I23
sg5
I1
sg6
I14
sg7
I27
sg8
I0
sg9
S'13'
p18
ssI7
(dp19
g3
I24
sg4
I23
sg5
I2
sg6
I17
sg7
I27
sg8
I1
sg9
g18
sssI1
(dp20
I0
(dp21
g3
I20
sg4
I23
sg5
I1
sg6
I18
sg7
I26
sg8
I1
sg9
S'14'
p22
ssI1
(dp23
g3
I22
sg4
I23
sg5
I2
sg6
I17
sg7
I26
sg8
I0
sg9
g22
ssI2
(dp24
g3
I20
sg4
I23
sg5
I1
sg6
I13
sg7
I25
sg8
I0
sg9
S'3'
p25
ssI3
(dp26
g3
I21
sg4
I23
sg5
I2
sg6
I13
sg7
I26
sg8
I0
sg9
g25
ssI4
(dp27
g3
I23
sg4
I23
sg5
I1
sg6
I15
sg7
I26
sg8
I0
sg9
S'18'
p28
ssI5
(dp29
g3
I22
sg4
I23
sg5
I2
sg6
I14
sg7
I26
sg8
I0
sg9
g28
ssI6
(dp30
g3
g13
sg4
g13
sg5
I0
sg6
g13
sg7
g13
sg8
g13
sg9
I19
ssI7
(dp31
g3
g13
sg4
g13
sg5
I1
sg6
g13
sg7
g13
sg8
g13
sg9
I19
sssI2
(dp32
I0
(dp33
g3
I25
sg4
I23
sg5
I1
sg6
I17
sg7
I27
sg8
I0
sg9
S'24'
p34
ssI1
(dp35
g3
I25
sg4
I23
sg5
I2
sg6
I15
sg7
I27
sg8
I0
sg9
g34
ssI2
(dp36
g3
I21
sg4
I23
sg5
I1
sg6
I20
sg7
I26
sg8
I2
sg9
S'11'
p37
ssI3
(dp38
g3
I21
sg4
I23
sg5
I2
sg6
I19
sg7
I26
sg8
I0
sg9
g37
ssI4
(dp39
g3
I20
sg4
I23
sg5
I1
sg6
I18
sg7
I26
sg8
I0
sg9
S'22'
p40
ssI5
(dp41
g3
I22
sg4
I23
sg5
I2
sg6
I17
sg7
I26
sg8
I0
sg9
g40
ssI6
(dp42
g3
I25
sg4
I23
sg5
I1
sg6
I20
sg7
I28
sg8
I2
sg9
S'21'
p43
ssI7
(dp44
g3
I25
sg4
I23
sg5
I2
sg6
I23
sg7
I28
sg8
I1
sg9
g43
sssI3
(dp45
I0
(dp46
g3
I21
sg4
I23
sg5
I1
sg6
I18
sg7
I26
sg8
I0
sg9
S'17'
p47
ssI1
(dp48
g3
I22
sg4
I23
sg5
I2
sg6
I16
sg7
I26
sg8
I0
sg9
g47
ssI2
(dp49
g3
I21
sg4
I23
sg5
I1
sg6
I16
sg7
I26
sg8
I0
sg9
S'25'
p50
ssI3
(dp51
g3
I24
sg4
I23
sg5
I2
sg6
I17
sg7
I27
sg8
I0
sg9
g50
ssI4
(dp52
g3
g13
sg4
g13
sg5
I0
sg6
g13
sg7
g13
sg8
g13
sg9
I10
ssI5
(dp53
g3
g13
sg4
g13
sg5
I1
sg6
g13
sg7
g13
sg8
g13
sg9
I10
ssI6
(dp54
g3
I21
sg4
I23
sg5
I1
sg6
I19
sg7
I26
sg8
I2
sg9
S'23'
p55
ssI7
(dp56
g3
I21
sg4
I23
sg5
I2
sg6
I18
sg7
I26
sg8
I0
sg9
g55
sssI4
(dp57
I0
(dp58
g3
I21
sg4
I23
sg5
I1
sg6
I18
sg7
I25
sg8
I0
sg9
S'4'
p59
ssI1
(dp60
g3
I18
sg4
I23
sg5
I2
sg6
I18
sg7
I24
sg8
I0
sg9
g59
ssI2
(dp61
g3
I17
sg4
I23
sg5
I1
sg6
I18
sg7
I24
sg8
I0
sg9
g47
ssI3
(dp62
g3
I19
sg4
I23
sg5
I2
sg6
I18
sg7
I24
sg8
I0
sg9
g47
ssI4
(dp63
g3
I15
sg4
I23
sg5
I1
sg6
I17
sg7
I24
sg8
I0
sg9
g28
ssI5
(dp64
g3
I15
sg4
I23
sg5
I2
sg6
I17
sg7
I24
sg8
I0
sg9
g28
ssI6
(dp65
g3
I15
sg4
I23
sg5
I1
sg6
I17
sg7
I24
sg8
I0
sg9
S'6'
p66
ssI7
(dp67
g3
I17
sg4
I23
sg5
I2
sg6
I18
sg7
I24
sg8
I0
sg9
g66
sssI5
(dp68
I0
(dp69
g3
I15
sg4
I23
sg5
I1
sg6
I17
sg7
I24
sg8
I0
sg9
S'9'
p70
ssI1
(dp71
g3
I15
sg4
I23
sg5
I2
sg6
I17
sg7
I24
sg8
I0
sg9
g70
ssI2
(dp72
g3
I16
sg4
I23
sg5
I1
sg6
I17
sg7
I24
sg8
I0
sg9
S'33'
p73
ssI3
(dp74
g3
I16
sg4
I23
sg5
I2
sg6
I18
sg7
I24
sg8
I0
sg9
g73
ssI4
(dp75
g3
I14
sg4
I23
sg5
I1
sg6
I17
sg7
I24
sg8
I0
sg9
S'38'
p76
ssI5
(dp77
g3
I18
sg4
I23
sg5
I2
sg6
I19
sg7
I24
sg8
I0
sg9
g76
ssI6
(dp78
g3
I14
sg4
I23
sg5
I1
sg6
I17
sg7
I24
sg8
I0
sg9
S'34'
p79
ssI7
(dp80
g3
I12
sg4
I23
sg5
I2
sg6
I18
sg7
I23
sg8
I0
sg9
g79
sssI6
(dp81
I0
(dp82
g3
I16
sg4
I23
sg5
I1
sg6
I17
sg7
I24
sg8
I0
sg9
S'37'
p83
ssI1
(dp84
g3
I16
sg4
I23
sg5
I2
sg6
I17
sg7
I24
sg8
I0
sg9
g83
ssI2
(dp85
g3
I17
sg4
I23
sg5
I1
sg6
I20
sg7
I24
sg8
I0
sg9
S'36'
p86
ssI3
(dp87
g3
I15
sg4
I23
sg5
I2
sg6
I18
sg7
I24
sg8
I0
sg9
g86
ssI4
(dp88
g3
I17
sg4
I23
sg5
I1
sg6
I18
sg7
I24
sg8
I0
sg9
g10
ssI5
(dp89
g3
I16
sg4
I23
sg5
I2
sg6
I18
sg7
I24
sg8
I0
sg9
g10
ssI6
(dp90
g3
g13
sg4
g13
sg5
I0
sg6
g13
sg7
g13
sg8
g13
sg9
I1
ssI7
(dp91
g3
g13
sg4
g13
sg5
I1
sg6
g13
sg7
g13
sg8
g13
sg9
I1
sssI7
(dp92
I0
(dp93
g3
g13
sg4
g13
sg5
I0
sg6
g13
sg7
g13
sg8
g13
sg9
I2
ssI1
(dp94
g3
g13
sg4
g13
sg5
I1
sg6
g13
sg7
g13
sg8
g13
sg9
I2
ssI2
(dp95
g3
I16
sg4
I23
sg5
I1
sg6
I21
sg7
I24
sg8
I0
sg9
S'19'
p96
ssI3
(dp97
g3
I16
sg4
I23
sg5
I2
sg6
I19
sg7
I24
sg8
I0
sg9
g96
ssI4
(dp98
g3
I16
sg4
I23
sg5
I1
sg6
I17
sg7
I24
sg8
I0
sg9
S'52'
p99
ssI5
(dp100
g3
I16
sg4
I23
sg5
I2
sg6
I18
sg7
I24
sg8
I0
sg9
g99
ssI6
(dp101
g3
I13
sg4
I23
sg5
I1
sg6
I18
sg7
I23
sg8
I0
sg9
S'32'
p102
ssI7
(dp103
g3
I17
sg4
I23
sg5
I2
sg6
I18
sg7
I24
sg8
I0
sg9
g102
sssI8
(dp104
I0
(dp105
g3
I16
sg4
I23
sg5
I1
sg6
I18
sg7
I24
sg8
I0
sg9
S'30'
p106
ssI1
(dp107
g3
I15
sg4
I23
sg5
I2
sg6
I18
sg7
I24
sg8
I0
sg9
g106
ssI2
(dp108
g3
I13
sg4
I23
sg5
I1
sg6
I20
sg7
I24
sg8
I0
sg9
S'26'
p109
ssI3
(dp110
g3
I15
sg4
I23
sg5
I2
sg6
I17
sg7
I24
sg8
I0
sg9
g109
ssI4
(dp111
g3
I18
sg4
I23
sg5
I1
sg6
I17
sg7
I24
sg8
I0
sg9
S'27'
p112
ssI5
(dp113
g3
I17
sg4
I23
sg5
I2
sg6
I17
sg7
I24
sg8
I0
sg9
g112
ssI6
(dp114
g3
I16
sg4
I23
sg5
I1
sg6
I23
sg7
I24
sg8
I0
sg9
S'29'
p115
ssI7
(dp116
g3
I17
sg4
I23
sg5
I2
sg6
I17
sg7
I24
sg8
I0
sg9
g115
sssI9
(dp117
I0
(dp118
g3
I18
sg4
I23
sg5
I1
sg6
I18
sg7
I24
sg8
I0
sg9
g50
ssI1
(dp119
g3
I18
sg4
I23
sg5
I2
sg6
I18
sg7
I24
sg8
I0
sg9
g50
ssI2
(dp120
g3
I15
sg4
I23
sg5
I1
sg6
I18
sg7
I24
sg8
I0
sg9
g37
ssI3
(dp121
g3
I16
sg4
I23
sg5
I2
sg6
I17
sg7
I24
sg8
I0
sg9
g37
ssI4
(dp122
g3
I17
sg4
I23
sg5
I1
sg6
I18
sg7
I24
sg8
I0
sg9
S'12'
p123
ssI5
(dp124
g3
I21
sg4
I23
sg5
I2
sg6
I17
sg7
I26
sg8
I0
sg9
g123
ssI6
(dp125
g3
I18
sg4
I23
sg5
I1
sg6
I18
sg7
I24
sg8
I0
sg9
S'7'
p126
ssI7
(dp127
g3
I16
sg4
I23
sg5
I2
sg6
I17
sg7
I24
sg8
I0
sg9
g126
sssI10
(dp128
I0
(dp129
g3
I16
sg4
I23
sg5
I1
sg6
I18
sg7
I24
sg8
I0
sg9
S'20'
p130
ssI1
(dp131
g3
I17
sg4
I23
sg5
I2
sg6
I17
sg7
I24
sg8
I0
sg9
g130
ssI2
(dp132
g3
I17
sg4
I23
sg5
I1
sg6
I17
sg7
I24
sg8
I0
sg9
g43
ssI3
(dp133
g3
I15
sg4
I23
sg5
I2
sg6
I17
sg7
I24
sg8
I0
sg9
g43
ssI4
(dp134
g3
I16
sg4
I23
sg5
I1
sg6
I19
sg7
I24
sg8
I0
sg9
g34
ssI5
(dp135
g3
I14
sg4
I23
sg5
I2
sg6
I19
sg7
I24
sg8
I0
sg9
g34
ssI6
(dp136
g3
I18
sg4
I23
sg5
I1
sg6
I17
sg7
I24
sg8
I0
sg9
g25
ssI7
(dp137
g3
I17
sg4
I23
sg5
I2
sg6
I17
sg7
I24
sg8
I0
sg9
g25
sss.