(dp0
I0
(dp1
I0
(dp2
S'TP_Vcal'
p3
I19
sS'TP_Vcal_ref'
p4
I23
sS'chip'
p5
I1
sS'stop'
p6
I18
sS'Ibias_TP_cal_diff'
p7
I24
sS'start'
p8
I0
sS'HW_FEB'
p9
S'5'
p10
sS'TP_calib'
p11
(dp12
F1.0
(dp13
S'Q'
p14
F3.508867340427292
sS'err'
p15
F0.038618445682273045
ssF2.0
(dp16
g14
F5.5199411155796225
sg15
F0.07541526656821244
ssF3.0
(dp17
g14
F7.727750368735988
sg15
F0.07158985449591182
ssF4.0
(dp18
g14
F10.34906845066009
sg15
F0.07086120457737836
ssF5.0
(dp19
g14
F13.217216692487392
sg15
F0.19090627865576484
ssF6.0
(dp20
g14
F16.364984340551914
sg15
F0.17888355499996286
ssF7.0
(dp21
g14
F19.380684190882246
sg15
F0.07250066689407864
ssF8.0
(dp22
g14
F22.053918579501854
sg15
F0.06375686787167718
ssF9.0
(dp23
g14
F24.500360680977927
sg15
F0.06703579250507773
ssF10.0
(dp24
g14
F26.628929255493777
sg15
F0.07596175400711254
ssF11.0
(dp25
g14
F28.588997536348767
sg15
F0.48965274525448077
ssF12.0
(dp26
g14
F30.725763422448118
sg15
F0.3703363210946278
ssF13.0
(dp27
g14
F33.17129471152602
sg15
F0.07796554128307953
ssF14.0
(dp28
g14
F35.60953950141859
sg15
F0.07851202872197961
ssF15.0
(dp29
g14
F38.18258452623985
sg15
F0.470707847372611
ssF16.0
(dp30
g14
F41.25384393285835
sg15
F0.08343041567208044
ssssI1
(dp31
g3
I16
sg4
I23
sg5
I2
sg6
I20
sg7
I24
sg8
I0
sg9
g10
sg11
(dp32
F0.0
(dp33
g14
F8.122457521149654
sg15
F0.055280847311068484
ssF1.0
(dp34
g14
F10.382410145934884
sg15
F0.0588601827484758
ssF2.0
(dp35
g14
F12.740794495248808
sg15
F0.1201065891218898
ssF3.0
(dp36
g14
F15.312944710963453
sg15
F0.06482574181082132
ssF4.0
(dp37
g14
F17.707122414651458
sg15
F0.1793644758078553
ssF5.0
(dp38
g14
F19.85372941725212
sg15
F0.05349117959236483
ssF6.0
(dp39
g14
F21.81043278970145
sg15
F0.05746821896726185
ssF7.0
(dp40
g14
F23.4400246735655
sg15
F0.06502459377956617
ssF8.0
(dp41
g14
F24.93837425805795
sg15
F0.06084870243592431
ssF9.0
(dp42
g14
F26.50930481114227
sg15
F0.06204181424839341
ssF10.0
(dp43
g14
F28.10210908078853
sg15
F0.05826362684224125
ssF11.0
(dp44
g14
F29.71778132684044
sg15
F0.06900163315446319
ssF12.0
(dp45
g14
F31.53031702194975
sg15
F0.06621770559203527
ssF13.0
(dp46
g14
F33.25635211065506
sg15
F0.40366949655204687
ssF14.0
(dp47
g14
F35.49343675903462
sg15
F0.06204181424839341
ssF15.0
(dp48
g14
F37.75338938381985
sg15
F0.06760966937324922
ssF16.0
(dp49
g14
F39.922864362826175
sg15
F0.7170601992939316
ssF17.0
(dp50
g14
F43.11145568164986
sg15
F0.07516604418555355
ssssI2
(dp51
g3
S'NA'
p52
sg4
g52
sg5
I0
sg6
g52
sg7
g52
sg8
g52
sg9
I20
sg11
g52
ssI3
(dp53
g3
g52
sg4
g52
sg5
I1
sg6
g52
sg7
g52
sg8
g52
sg9
I20
sg11
g52
ssI4
(dp54
g3
g52
sg4
g52
sg5
I0
sg6
g52
sg7
g52
sg8
g52
sg9
I6
sg11
g52
ssI5
(dp55
g3
g52
sg4
g52
sg5
I1
sg6
g52
sg7
g52
sg8
g52
sg9
I6
sg11
g52
ssI6
(dp56
g3
I25
sg4
I23
sg5
I1
sg6
I14
sg7
I27
sg8
I0
sg9
S'13'
p57
sg11
(dp58
F0.0
(dp59
g14
F12.461060928076165
sg15
F0.07005708965283002
ssF1.0
(dp60
g14
F14.644077783602453
sg15
F0.06748245773135271
ssF2.0
(dp61
g14
F16.647547939341507
sg15
F0.25380450468036875
ssF3.0
(dp62
g14
F18.731644726305774
sg15
F0.07940706873608974
ssF4.0
(dp63
g14
F20.525079120029577
sg15
F0.07398679100666382
ssF5.0
(dp64
g14
F22.269731014188544
sg15
F0.07574838126872724
ssF6.0
(dp65
g14
F24.036741553981393
sg15
F0.07954257567932538
ssF7.0
(dp66
g14
F25.98939660600708
sg15
F0.08306575620345223
ssF8.0
(dp67
g14
F27.819417874404508
sg15
F0.07913605484961844
ssF9.0
(dp68
g14
F30.08915917360161
sg15
F0.08455633257904437
ssF10.0
(dp69
g14
F32.198324745064475
sg15
F0.40408170472870236
ssF11.0
(dp70
g14
F34.923369373533355
sg15
F0.08970559642199899
ssF12.0
(dp71
g14
F36.218138216149974
sg15
F1.422822903974304
ssF13.0
(dp72
g14
F40.65395800296891
sg15
F0.07425780489313512
ssssI7
(dp73
g3
I24
sg4
I23
sg5
I2
sg6
I17
sg7
I27
sg8
I1
sg9
g57
sg11
(dp74
F1.0
(dp75
g14
F3.907633732589464
sg15
F0.08719873611079962
ssF2.0
(dp76
g14
F5.5821881017852055
sg15
F0.06569535846794222
ssF3.0
(dp77
g14
F7.634321464237423
sg15
F0.06417149706018069
ssF4.0
(dp78
g14
F10.073346306326876
sg15
F0.06264763565241914
ssF5.0
(dp79
g14
F12.529302941835901
sg15
F0.12444868163385962
ssF6.0
(dp80
g14
F14.942083504125016
sg15
F0.160852037485941
ssF7.0
(dp81
g14
F17.205864284321894
sg15
F0.06349422532339777
ssF8.0
(dp82
g14
F19.403611070182436
sg15
F0.0648487687969636
ssF9.0
(dp83
g14
F21.179756199895618
sg15
F0.07619307038807732
ssF10.0
(dp84
g14
F23.043100065719592
sg15
F0.07348398344094569
ssF11.0
(dp85
g14
F24.94284728739566
sg15
F0.07788624973003459
ssF12.0
(dp86
g14
F27.011912443267445
sg15
F0.07094421442800979
ssF13.0
(dp87
g14
F29.317176117342274
sg15
F0.07670102419066452
ssF14.0
(dp88
g14
F31.81122928804534
sg15
F0.3924789714656961
ssF15.0
(dp89
g14
F34.637145609772034
sg15
F0.43345391154106216
ssF16.0
(dp90
g14
F37.61206171359096
sg15
F0.07703966005905596
sssssI1
(dp91
I0
(dp92
g3
I20
sg4
I23
sg5
I1
sg6
I18
sg7
I26
sg8
I1
sg9
S'14'
p93
sg11
(dp94
F1.0
(dp95
g14
F3.878347674013677
sg15
F0.05149792554325163
ssF2.0
(dp96
g14
F5.506222174332192
sg15
F0.07676469800080206
ssF3.0
(dp97
g14
F7.501525693976156
sg15
F0.07888633538273378
ssF4.0
(dp98
g14
F9.9655181989014
sg15
F0.08602275203104955
ssF5.0
(dp99
g14
F12.389006717444309
sg15
F0.08814438941298126
ssF6.0
(dp100
g14
F14.745952972644814
sg15
F0.10241722270961279
ssF7.0
(dp101
g14
F16.78658238181186
sg15
F0.10299585108650326
ssF8.0
(dp102
g14
F18.400955553336267
sg15
F0.09778819569448906
ssF9.0
(dp103
g14
F19.97675349973464
sg15
F0.10029558532768108
ssF10.0
(dp104
g14
F21.475400995880953
sg15
F0.10299585108650326
ssF11.0
(dp105
g14
F22.938366408785686
sg15
F0.11302540961927138
ssF12.0
(dp106
g14
F24.51223559392776
sg15
F0.10858925872977779
ssF13.0
(dp107
g14
F26.371561445002463
sg15
F0.10318872721213342
ssF14.0
(dp108
g14
F28.271391282459497
sg15
F0.10955363935792856
ssF15.0
(dp109
g14
F30.330343923561415
sg15
F0.10145284208146202
ssF16.0
(dp110
g14
F32.4760908211969
sg15
F0.092773416428105
ssF17.0
(dp111
g14
F34.996017402554884
sg15
F0.09817394794574937
ssF18.0
(dp112
g14
F37.328854142051625
sg15
F0.08023646826214487
ssssI1
(dp113
g3
I22
sg4
I23
sg5
I2
sg6
I17
sg7
I26
sg8
I0
sg9
g93
sg11
(dp114
F0.0
(dp115
g14
F8.927801129328797
sg15
F0.06598913875286103
ssF1.0
(dp116
g14
F11.286115261094528
sg15
F0.06901154205451879
ssF2.0
(dp117
g14
F13.605809795116857
sg15
F0.12526182572426037
ssF3.0
(dp118
g14
F15.980915056336245
sg15
F0.06531749357471486
ssF4.0
(dp119
g14
F18.218333056035668
sg15
F0.06800407428729953
ssF5.0
(dp120
g14
F19.942782050925956
sg15
F0.3007291285149468
ssF6.0
(dp121
g14
F21.52030866309677
sg15
F0.3495913152250806
ssF7.0
(dp122
g14
F23.11546596119392
sg15
F0.2627811759496883
ssF8.0
(dp123
g14
F24.55278664242672
sg15
F0.06951527593812841
ssF9.0
(dp124
g14
F25.90447256344588
sg15
F0.3008970398094834
ssF10.0
(dp125
g14
F27.32919989758844
sg15
F0.3121470965434317
ssF11.0
(dp126
g14
F28.81269618481879
sg15
F0.4738456731821217
ssF12.0
(dp127
g14
F30.764664983806092
sg15
F0.3856922435504371
ssF13.0
(dp128
g14
F32.74937648522802
sg15
F0.06565331616378794
ssF14.0
(dp129
g14
F34.624945645201194
sg15
F0.4224648170539398
ssF15.0
(dp130
g14
F36.65751186556603
sg15
F0.6457868387875407
ssF16.0
(dp131
g14
F39.79409484750864
sg15
F0.07270559053432271
ssF17.0
(dp132
g14
F42.221252610034355
sg15
F0.5324467149753749
ssssI2
(dp133
g3
I20
sg4
I23
sg5
I1
sg6
I13
sg7
I25
sg8
I0
sg9
S'3'
p134
sg11
(dp135
F0.0
(dp136
g14
F12.79758649104167
sg15
F0.16796095235728373
ssF1.0
(dp137
g14
F15.588792135669987
sg15
F0.07736383260093067
ssF2.0
(dp138
g14
F18.34436969949524
sg15
F0.19768495119869395
ssF3.0
(dp139
g14
F21.119288221470725
sg15
F0.3180060697964572
ssF4.0
(dp140
g14
F23.631576890669372
sg15
F0.08693251715946684
ssF5.0
(dp141
g14
F25.96979693651592
sg15
F0.08041766809833585
ssF6.0
(dp142
g14
F28.118679181523355
sg15
F0.3450834112067829
ssF7.0
(dp143
g14
F30.291992110510023
sg15
F0.37256793068342936
ssF8.0
(dp144
g14
F32.531471475273804
sg15
F0.39801655982847234
ssF9.0
(dp145
g14
F35.05902932195947
sg15
F0.09120788685583407
ssF10.0
(dp146
g14
F37.504133610215206
sg15
F0.0922258320216358
ssF11.0
(dp147
g14
F40.030673511735074
sg15
F0.09202224298847543
ssF12.0
(dp148
g14
F42.809663814373764
sg15
F0.08795046232526857
ssF13.0
(dp149
g14
F45.605959184831086
sg15
F0.09324377718743751
ssssI3
(dp150
g3
I21
sg4
I23
sg5
I2
sg6
I13
sg7
I26
sg8
I0
sg9
g134
sg11
(dp151
F0.0
(dp152
g14
F10.177490186773962
sg15
F0.0743014586763563
ssF1.0
(dp153
g14
F12.790717342320354
sg15
F0.07937189942592393
ssF2.0
(dp154
g14
F15.758875350336476
sg15
F0.07898186552211103
ssF3.0
(dp155
g14
F18.519340304572236
sg15
F0.20515783340558222
ssF4.0
(dp156
g14
F21.21739983419793
sg15
F0.09594834033797192
ssF5.0
(dp157
g14
F23.69509020816934
sg15
F0.3765777341313491
ssF6.0
(dp158
g14
F26.32586888938731
sg15
F0.09575332338606547
ssF7.0
(dp159
g14
F28.456429088965244
sg15
F0.33679427594243394
ssF8.0
(dp160
g14
F30.96337200572262
sg15
F0.08951278092505917
ssF9.0
(dp161
g14
F33.083206272945695
sg15
F0.3984196327448712
ssF10.0
(dp162
g14
F33.165113392746406
sg15
F1.7270701260834946
ssF11.0
(dp163
g14
F38.318436346874265
sg15
F0.4674556337197534
ssF12.0
(dp164
g14
F41.02137130029762
sg15
F0.4994384138324107
ssF13.0
(dp165
g14
F44.403940331114946
sg15
F0.101213798039446
ssssI4
(dp166
g3
I23
sg4
I23
sg5
I1
sg6
I15
sg7
I26
sg8
I0
sg9
S'18'
p167
sg11
(dp168
F0.0
(dp169
g14
F7.9542123666487425
sg15
F0.07660431724499624
ssF1.0
(dp170
g14
F10.228919700668325
sg15
F0.10677760047638864
ssF2.0
(dp171
g14
F12.688248950350307
sg15
F0.06654655616786544
ssF3.0
(dp172
g14
F15.113822700526853
sg15
F0.16175084252810357
ssF4.0
(dp173
g14
F17.628262969809555
sg15
F0.07233321322594069
ssF5.0
(dp174
g14
F19.850614835208454
sg15
F0.07136877038292815
ssF6.0
(dp175
g14
F21.63345631929164
sg15
F0.07770653763701056
ssF7.0
(dp176
g14
F23.315720192603514
sg15
F0.26563511447545457
ssF8.0
(dp177
g14
F25.091672799236612
sg15
F0.07646653969599444
ssF9.0
(dp178
g14
F26.745003387258116
sg15
F0.30944837505802436
ssF10.0
(dp179
g14
F28.652533553187922
sg15
F0.3359016644663684
ssF11.0
(dp180
g14
F30.78395223624564
sg15
F0.07439987646096757
ssF12.0
(dp181
g14
F33.26601478151292
sg15
F0.07839542538201953
ssF13.0
(dp182
g14
F35.50489995279204
sg15
F0.4330348365126316
ssF14.0
(dp183
g14
F38.07376235393044
sg15
F0.9811139264417593
ssssI5
(dp184
g3
I22
sg4
I23
sg5
I2
sg6
I14
sg7
I26
sg8
I0
sg9
g167
sg11
(dp185
F0.0
(dp186
g14
F5.978564987262045
sg15
F0.0710197812102657
ssF1.0
(dp187
g14
F8.311767409004707
sg15
F0.0705932359777716
ssF2.0
(dp188
g14
F11.078979604810103
sg15
F0.07720468708142997
ssF3.0
(dp189
g14
F14.038137155237841
sg15
F0.0671808741178189
ssF4.0
(dp190
g14
F16.848003874292647
sg15
F0.07507196091895953
ssF5.0
(dp191
g14
F19.56296427911752
sg15
F0.07763123231392406
ssF6.0
(dp192
g14
F21.958015759571825
sg15
F0.06974014551278343
ssF7.0
(dp193
g14
F23.879602031957692
sg15
F0.46898648312725
ssF8.0
(dp194
g14
F26.299179863280408
sg15
F0.31500365419688414
ssF9.0
(dp195
g14
F28.399915133313794
sg15
F0.06974014551278343
ssF10.0
(dp196
g14
F30.545437652759055
sg15
F0.07187287167525387
ssF11.0
(dp197
g14
F32.93195822856348
sg15
F0.07656486923268883
ssF12.0
(dp198
g14
F35.45284055260354
sg15
F0.08594886434755879
ssF13.0
(dp199
g14
F38.014244673730545
sg15
F0.6464292998447907
ssssI6
(dp200
g3
g52
sg4
g52
sg5
I0
sg6
g52
sg7
g52
sg8
g52
sg9
I19
sg11
g52
ssI7
(dp201
g3
g52
sg4
g52
sg5
I1
sg6
g52
sg7
g52
sg8
g52
sg9
I19
sg11
g52
sssI2
(dp202
I0
(dp203
g3
I25
sg4
I23
sg5
I1
sg6
I17
sg7
I27
sg8
I0
sg9
S'24'
p204
sg11
(dp205
F0.0
(dp206
g14
F10.931291815067686
sg15
F0.0806110890383057
ssF1.0
(dp207
g14
F13.332315356668756
sg15
F0.160233084959577
ssF2.0
(dp208
g14
F15.598574961073883
sg15
F0.08085836231756431
ssF3.0
(dp209
g14
F17.477851883439293
sg15
F0.21512775295498762
ssF4.0
(dp210
g14
F19.158073816001522
sg15
F0.2527132914022958
ssF5.0
(dp211
g14
F20.680040849838246
sg15
F0.36027716787978964
ssF6.0
(dp212
g14
F22.099389472782647
sg15
F0.4673464977987662
ssF7.0
(dp213
g14
F23.73139311588945
sg15
F0.298458848065138
ssF8.0
(dp214
g14
F24.858959269308695
sg15
F0.5350993763156244
ssF9.0
(dp215
g14
F26.749363489240743
sg15
F0.3404953055391011
ssF10.0
(dp216
g14
F28.601440350887703
sg15
F0.08605110118199505
ssF11.0
(dp217
g14
F30.498026402801216
sg15
F0.08456746150644341
ssF12.0
(dp218
g14
F32.32043047093715
sg15
F0.4183863885055622
ssF13.0
(dp219
g14
F34.57803551056822
sg15
F0.4488010018543707
ssF14.0
(dp220
g14
F36.62422189643319
sg15
F0.841965515875555
ssF15.0
(dp221
g14
F39.912956510572656
sg15
F0.08530928134421924
ssF16.0
(dp222
g14
F42.67747177268388
sg15
F0.5702121819703465
ssF17.0
(dp223
g14
F45.63115109342793
sg15
F0.6016158884361895
ssssI1
(dp224
g3
I25
sg4
I23
sg5
I2
sg6
I15
sg7
I27
sg8
I0
sg9
g204
sg11
(dp225
F0.0
(dp226
g14
F9.047042477745823
sg15
F0.1075151048496974
ssF1.0
(dp227
g14
F11.700540268949108
sg15
F0.12418411335352644
ssF2.0
(dp228
g14
F14.042535963737091
sg15
F0.12189212468424994
ssF3.0
(dp229
g14
F16.50642378320932
sg15
F0.11293253261344183
ssF4.0
(dp230
g14
F18.71402559693518
sg15
F0.11855832298348415
ssF5.0
(dp231
g14
F20.74660282137084
sg15
F0.11980849862127133
ssF6.0
(dp232
g14
F22.398918289312892
sg15
F0.1283513654794837
ssF7.0
(dp233
g14
F24.08144633516814
sg15
F0.12355902553463285
ssF8.0
(dp234
g14
F26.170281463304217
sg15
F0.30795993210824174
ssF9.0
(dp235
g14
F28.11430458006328
sg15
F0.11459943346382474
ssF10.0
(dp236
g14
F30.23439409914404
sg15
F0.12147539947165423
ssF11.0
(dp237
g14
F32.610769623971166
sg15
F0.13251861760544098
ssF12.0
(dp238
g14
F34.79649336403575
sg15
F0.4213091899342793
ssF13.0
(dp239
g14
F37.81983478141774
sg15
F0.1435618357392277
ssF14.0
(dp240
g14
F40.51396328084911
sg15
F0.12085031165276063
ssF15.0
(dp241
g14
F43.399785378074526
sg15
F0.09355481022774056
ssssI2
(dp242
g3
I21
sg4
I23
sg5
I1
sg6
I20
sg7
I26
sg8
I2
sg9
S'11'
p243
sg11
(dp244
F2.0
(dp245
g14
F4.57637244810907
sg15
F0.0762129734760972
ssF3.0
(dp246
g14
F6.618396245373388
sg15
F0.07282573021049288
ssF4.0
(dp247
g14
F7.327297871674865
sg15
F0.7127727614621663
ssF5.0
(dp248
g14
F11.71377790063246
sg15
F0.08298746000730585
ssF6.0
(dp249
g14
F14.457444945771956
sg15
F0.0931491898041188
ssF7.0
(dp250
g14
F16.8986795564825
sg15
F0.0953267033320073
ssF8.0
(dp251
g14
F19.14877686863394
sg15
F0.09097167627623032
ssF9.0
(dp252
g14
F21.027487151306623
sg15
F0.09048778438114399
ssF10.0
(dp253
g14
F22.85538878499524
sg15
F0.10040756823041379
ssF11.0
(dp254
g14
F24.55747852596141
sg15
F0.10064951417795695
ssF12.0
(dp255
g14
F26.284972591419614
sg15
F0.10258508175830228
ssF13.0
(dp256
g14
F28.364498010553124
sg15
F0.09968173038778429
ssF14.0
(dp257
g14
F30.602498025327407
sg15
F0.09460086548937781
ssF15.0
(dp258
g14
F32.963890473348705
sg15
F0.10064951417795695
ssF16.0
(dp259
g14
F35.494645084650216
sg15
F0.10645621691899293
ssF17.0
(dp260
g14
F38.53227645605467
sg15
F0.09992367633532745
ssF18.0
(dp261
g14
F41.709026747296434
sg15
F0.08927805464342815
ssF19.0
(dp262
g14
F44.42487000846847
sg15
F0.06871264910225906
ssssI3
(dp263
g3
I21
sg4
I23
sg5
I2
sg6
I19
sg7
I26
sg8
I0
sg9
g243
sg11
(dp264
F0.0
(dp265
g14
F5.812326720274111
sg15
F0.07621745589128812
ssF1.0
(dp266
g14
F7.83329636517433
sg15
F0.08294252552875471
ssF2.0
(dp267
g14
F10.046534026632889
sg15
F0.08794321833610166
ssF3.0
(dp268
g14
F12.642583344378005
sg15
F0.13208726518716446
ssF4.0
(dp269
g14
F15.355890286571261
sg15
F0.09570291407164004
ssF5.0
(dp270
g14
F17.831233226208003
sg15
F0.0931163488264606
ssF6.0
(dp271
g14
F19.9729092492166
sg15
F0.10139335761103486
ssF7.0
(dp272
g14
F21.98439482155116
sg15
F0.10225554602609468
ssF8.0
(dp273
g14
F23.71394478216116
sg15
F0.25934627524999393
ssF9.0
(dp274
g14
F25.501261366580163
sg15
F0.10484211127127414
ssF10.0
(dp275
g14
F26.93163194716441
sg15
F0.42057550886618034
ssF11.0
(dp276
g14
F28.823273329805655
sg15
F0.4616156774230278
ssF12.0
(dp277
g14
F31.0089209619823
sg15
F0.36436082420428
ssF13.0
(dp278
g14
F33.18680889842341
sg15
F0.11242936932380056
ssF14.0
(dp279
g14
F35.51989074957528
sg15
F0.10880817798054931
ssF15.0
(dp280
g14
F37.91936110868676
sg15
F0.47989407182229593
ssF16.0
(dp281
g14
F40.32917772877895
sg15
F0.4921371473161454
ssF17.0
(dp282
g14
F42.51741192620078
sg15
F1.0442826083204544
ssF18.0
(dp283
g14
F45.61266833626553
sg15
F0.08052839796658721
ssssI4
(dp284
g3
I20
sg4
I23
sg5
I1
sg6
I18
sg7
I26
sg8
I0
sg9
S'22'
p285
sg11
(dp286
F0.0
(dp287
g14
F7.810097474896964
sg15
F0.07625602922129751
ssF1.0
(dp288
g14
F10.140703930898871
sg15
F0.06952260500749641
ssF2.0
(dp289
g14
F12.637120958165633
sg15
F0.06901759819146132
ssF3.0
(dp290
g14
F14.965202380087362
sg15
F0.07659270043198756
ssF4.0
(dp291
g14
F17.362301400200558
sg15
F0.0786127276961279
ssF5.0
(dp292
g14
F19.356236645512407
sg15
F0.07692937164267763
ssF6.0
(dp293
g14
F21.239070391296544
sg15
F0.07810772088009281
ssF7.0
(dp294
g14
F22.843308710234655
sg15
F0.08298945343509861
ssF8.0
(dp295
g14
F24.545181680272886
sg15
F0.07187930348232678
ssF9.0
(dp296
g14
F26.103969385767844
sg15
F0.08551448751527403
ssF10.0
(dp297
g14
F27.836984442794904
sg15
F0.0846728094885489
ssF11.0
(dp298
g14
F29.57841628008921
sg15
F0.08164276859233839
ssF12.0
(dp299
g14
F31.45704163573972
sg15
F0.07524601558922735
ssF13.0
(dp300
g14
F33.49306078238783
sg15
F0.08197943980302845
ssF14.0
(dp301
g14
F35.51561308060833
sg15
F0.07911773451216299
ssF15.0
(dp302
g14
F37.905136998481
sg15
F0.07575102240526242
ssF16.0
(dp303
g14
F40.88299385703454
sg15
F0.09611963065201076
ssssI5
(dp304
g3
I22
sg4
I23
sg5
I2
sg6
I17
sg7
I26
sg8
I0
sg9
g285
sg11
(dp305
F0.0
(dp306
g14
F5.816833606791078
sg15
F0.07336702284146747
ssF1.0
(dp307
g14
F8.049147555114128
sg15
F0.06554120707171095
ssF2.0
(dp308
g14
F10.576886048745484
sg15
F0.081192838611224
ssF3.0
(dp309
g14
F13.47928547235394
sg15
F0.13401709505708057
ssF4.0
(dp310
g14
F16.21245162994141
sg15
F0.1549511522411793
ssF5.0
(dp311
g14
F19.02876708008254
sg15
F0.09273591687161489
ssF6.0
(dp312
g14
F21.68954444179976
sg15
F0.24338287043942808
ssF7.0
(dp313
g14
F24.01283349844623
sg15
F0.08921429977522444
ssF8.0
(dp314
g14
F26.030915740072196
sg15
F0.4004861220172904
ssF9.0
(dp315
g14
F28.36692174734452
sg15
F0.10056173264137142
ssF10.0
(dp316
g14
F30.452501649984633
sg15
F0.3648786602648982
ssF11.0
(dp317
g14
F32.928394114141355
sg15
F0.38326932732382607
ssF12.0
(dp318
g14
F35.59308438374346
sg15
F0.10369205894927402
ssF13.0
(dp319
g14
F38.46907167912898
sg15
F0.46113619423290353
ssF14.0
(dp320
g14
F41.59646330611793
sg15
F0.5153299684384676
ssF15.0
(dp321
g14
F44.48712400607175
sg15
F0.7632126829455056
ssF16.0
(dp322
g14
F47.42082669275923
sg15
F0.06867153337961356
ssssI6
(dp323
g3
I25
sg4
I23
sg5
I1
sg6
I20
sg7
I28
sg8
I2
sg9
S'21'
p324
sg11
(dp325
F2.0
(dp326
g14
F4.395105536649632
sg15
Fnan
ssF3.0
(dp327
g14
F5.929981677799722
sg15
F0.09510288145039912
ssF4.0
(dp328
g14
F8.64693294826778
sg15
F0.08033892606394605
ssF5.0
(dp329
g14
F11.491391106164292
sg15
F0.0847489387118476
ssF6.0
(dp330
g14
F14.261070788726826
sg15
F0.1555008807586163
ssF7.0
(dp331
g14
F16.62713844416619
sg15
F0.2567394319800089
ssF8.0
(dp332
g14
F18.865699212177095
sg15
F0.08609111647425244
ssF9.0
(dp333
g14
F20.652713032978948
sg15
F0.08417371967081697
ssF10.0
(dp334
g14
F22.262367649463027
sg15
F0.08283154190841215
ssF11.0
(dp335
g14
F23.94680074128108
sg15
F0.09280200528627656
ssF12.0
(dp336
g14
F25.509479136080987
sg15
F0.42412817291992516
ssF13.0
(dp337
g14
F27.547671938132886
sg15
F0.08896721167940563
ssF14.0
(dp338
g14
F29.596410422603682
sg15
F0.09529462113074266
ssF15.0
(dp339
g14
F31.88865830111078
sg15
F0.09203504656490237
ssF16.0
(dp340
g14
F35.10317404207034
sg15
F0.09433592272902494
ssF17.0
(dp341
g14
F37.66769226666528
sg15
F0.8031975209591168
ssF18.0
(dp342
g14
F41.17269362334531
sg15
F0.5192310543703242
ssF19.0
(dp343
g14
F44.502253172511004
sg15
F0.8091414510497668
ssF20.0
(dp344
g14
F48.90747232840398
sg15
F0.6181687294275944
ssssI7
(dp345
g3
I25
sg4
I23
sg5
I2
sg6
I23
sg7
I28
sg8
I1
sg9
g324
sg11
(dp346
F1.0
(dp347
g14
F3.182029511290742
sg15
Fnan
ssF2.0
(dp348
g14
F4.656975472268878
sg15
F0.06870968866370708
ssF3.0
(dp349
g14
F6.378846876882208
sg15
F0.07597705958006071
ssF4.0
(dp350
g14
F8.43187916075211
sg15
F0.06937035874701196
ssF5.0
(dp351
g14
F10.306530522129695
sg15
F0.11908578251570386
ssF6.0
(dp352
g14
F12.182833558715544
sg15
F0.07118720147610036
ssF7.0
(dp353
g14
F13.524819665428574
sg15
F0.13890588501485013
ssF8.0
(dp354
g14
F14.574459260279193
sg15
F0.24725577867684978
ssF9.0
(dp355
g14
F15.788440538351901
sg15
F0.07482088693427719
ssF10.0
(dp356
g14
F16.696036065291974
sg15
F0.06590184080966136
ssF11.0
(dp357
g14
F17.434334883385173
sg15
F0.28194095805035574
ssF12.0
(dp358
g14
F18.507097931151467
sg15
F0.21323126938664866
ssF13.0
(dp359
g14
F19.47002457756832
sg15
F0.31679130494468793
ssF14.0
(dp360
g14
F20.78062885532437
sg15
F0.07961074503823753
ssF15.0
(dp361
g14
F22.11105323557957
sg15
F0.07416021685097231
ssF16.0
(dp362
g14
F23.2061138986574
sg15
F0.3765819474837792
ssF17.0
(dp363
g14
F24.86687332056503
sg15
F0.2878869888000996
ssF18.0
(dp364
g14
F26.622604066947737
sg15
F0.07382988180931986
ssF19.0
(dp365
g14
F28.209038104483568
sg15
F0.49451155735369956
ssF20.0
(dp366
g14
F30.718758583437964
sg15
F0.07795906982997533
ssF21.0
(dp367
g14
F33.157457028437086
sg15
F0.08175792280897838
ssF22.0
(dp368
g14
F35.86372685717468
sg15
F0.43736359514782774
sssssI3
(dp369
I0
(dp370
g3
I21
sg4
I23
sg5
I1
sg6
I18
sg7
I26
sg8
I0
sg9
S'17'
p371
sg11
(dp372
F0.0
(dp373
g14
F14.671545527313173
sg15
F0.16586561141180126
ssF1.0
(dp374
g14
F16.364410268088022
sg15
F0.07618353612225431
ssF2.0
(dp375
g14
F18.04155753175027
sg15
F0.0809912350037558
ssF3.0
(dp376
g14
F19.375693971366932
sg15
F0.08228561547185236
ssF4.0
(dp377
g14
F20.679320014235607
sg15
F0.07784773958123559
ssF5.0
(dp378
g14
F21.929321723425993
sg15
F0.08505928790348781
ssF6.0
(dp379
g14
F22.995336494651227
sg15
F0.08542911089437255
ssF7.0
(dp380
g14
F23.98553755274509
sg15
F0.08210070397640999
ssF8.0
(dp381
g14
F25.121818692238417
sg15
F0.07803265107667795
ssF9.0
(dp382
g14
F26.253477044345694
sg15
F0.32063653309706064
ssF10.0
(dp383
g14
F27.707805955999895
sg15
F0.09134627874852823
ssF11.0
(dp384
g14
F28.692459669230484
sg15
F0.5809919186799103
ssF12.0
(dp385
g14
F30.35758768568898
sg15
F0.34892799189974244
ssF13.0
(dp386
g14
F31.941354644152835
sg15
F0.3838762645383494
ssF14.0
(dp387
g14
F33.661031551766825
sg15
F0.4252964395174391
ssF15.0
(dp388
g14
F35.78104184701354
sg15
F0.08394981893083363
ssF16.0
(dp389
g14
F38.42157800193051
sg15
F0.08487437640804546
ssF17.0
(dp390
g14
F40.13848123711287
sg15
F0.09301048220750952
ssssI1
(dp391
g3
I22
sg4
I23
sg5
I2
sg6
I16
sg7
I26
sg8
I0
sg9
g371
sg11
(dp392
F0.0
(dp393
g14
F6.293470971147985
sg15
F0.06344927200803384
ssF1.0
(dp394
g14
F8.3820095080791
sg15
F0.0614276040273857
ssF2.0
(dp395
g14
F10.850777138293651
sg15
F0.1083925063470578
ssF3.0
(dp396
g14
F13.324987720763794
sg15
F0.13156393166371722
ssF4.0
(dp397
g14
F15.974150340020795
sg15
F0.0640713236943871
ssF5.0
(dp398
g14
F18.20031781255757
sg15
F0.06609299167503524
ssF6.0
(dp399
g14
F20.15589280153067
sg15
F0.0690477371852133
ssF7.0
(dp400
g14
F21.72035279270915
sg15
F0.3530143320054823
ssF8.0
(dp401
g14
F23.45976482067449
sg15
F0.263905427935376
ssF9.0
(dp402
g14
F25.03044532871651
sg15
F0.2856772369577406
ssF10.0
(dp403
g14
F26.8849369186572
sg15
F0.07215799561697965
ssF11.0
(dp404
g14
F28.56836429485075
sg15
F0.33435278141488417
ssF12.0
(dp405
g14
F30.50138991019354
sg15
F0.524856110360574
ssF13.0
(dp406
g14
F32.949940860601615
sg15
F0.07791197371574743
ssF14.0
(dp407
g14
F35.09135379087276
sg15
F0.7606136994884644
ssF15.0
(dp408
g14
F35.19632501294487
sg15
F2.9227098483308525
ssssI2
(dp409
g3
I21
sg4
I23
sg5
I1
sg6
I16
sg7
I26
sg8
I0
sg9
S'25'
p410
sg11
(dp411
F0.0
(dp412
g14
F10.034485904074053
sg15
F0.08744643531833228
ssF1.0
(dp413
g14
F12.596203895893208
sg15
F0.08744643531833228
ssF2.0
(dp414
g14
F14.89360016886602
sg15
F0.36762745729545737
ssF3.0
(dp415
g14
F17.645850066353574
sg15
F0.07709383466351712
ssF4.0
(dp416
g14
F20.13598092598518
sg15
F0.08546402242698468
ssF5.0
(dp417
g14
F22.250554676755936
sg15
F0.08612482672410056
ssF6.0
(dp418
g14
F24.0600571103582
sg15
F0.2828242391655885
ssF7.0
(dp419
g14
F25.946653378623985
sg15
F0.08568429052602332
ssF8.0
(dp420
g14
F27.3971188107933
sg15
F0.4396551256810862
ssF9.0
(dp421
g14
F29.50178049710732
sg15
F0.3555127118483333
ssF10.0
(dp422
g14
F31.60093548094537
sg15
F0.09339367399237503
ssF11.0
(dp423
g14
F33.68136767636514
sg15
F0.4077162513204863
ssF12.0
(dp424
g14
F36.498596663069094
sg15
F0.4447212919589745
ssF13.0
(dp425
g14
F39.151725915989275
sg15
F0.10484761514238328
ssF14.0
(dp426
g14
F41.72886267474113
sg15
F0.7330522336005285
ssF15.0
(dp427
g14
F44.769663781969285
sg15
F0.07929651565390333
ssssI3
(dp428
g3
I24
sg4
I23
sg5
I2
sg6
I17
sg7
I27
sg8
I0
sg9
g410
sg11
(dp429
F0.0
(dp430
g14
F8.36062094029898
sg15
F0.06901387796196726
ssF1.0
(dp431
g14
F10.819240342694064
sg15
F0.11011773174813892
ssF2.0
(dp432
g14
F13.458006264769287
sg15
F0.07290436618041148
ssF3.0
(dp433
g14
F15.778767062902107
sg15
F0.2659064121475797
ssF4.0
(dp434
g14
F18.20440189127125
sg15
F0.20078302240405668
ssF5.0
(dp435
g14
F20.317106145548138
sg15
F0.07713315772219868
ssF6.0
(dp436
g14
F22.204838689801946
sg15
F0.0757799444288268
ssF7.0
(dp437
g14
F23.98008537904422
sg15
F0.08220770757234334
ssF8.0
(dp438
g14
F25.488918201153894
sg15
F0.08119279760231442
ssF9.0
(dp439
g14
F27.303915530888965
sg15
F0.08170025258732888
ssF10.0
(dp440
g14
F29.233935990560646
sg15
F0.08119279760231442
ssF11.0
(dp441
g14
F31.409226359655985
sg15
F0.0855907408057731
ssF12.0
(dp442
g14
F33.63949101879456
sg15
F0.41222259949341716
ssF13.0
(dp443
g14
F35.95940605861903
sg15
F0.6072544654006432
ssF14.0
(dp444
g14
F38.68274781152999
sg15
F0.6779598599793253
ssF15.0
(dp445
g14
F41.97359338934879
sg15
F0.087282257422488
ssF16.0
(dp446
g14
F44.59798142018194
sg15
F0.08085449427897144
ssssI4
(dp447
g3
g52
sg4
g52
sg5
I0
sg6
g52
sg7
g52
sg8
g52
sg9
I10
sg11
g52
ssI5
(dp448
g3
g52
sg4
g52
sg5
I1
sg6
g52
sg7
g52
sg8
g52
sg9
I10
sg11
g52
ssI6
(dp449
g3
I21
sg4
I23
sg5
I1
sg6
I19
sg7
I26
sg8
I2
sg9
S'23'
p450
sg11
(dp451
F2.0
(dp452
g14
F4.2074826282281546
sg15
F0.06607955656582341
ssF3.0
(dp453
g14
F5.947289689443785
sg15
F0.06262441635323134
ssF4.0
(dp454
g14
F8.180893872709039
sg15
F0.06723126997002077
ssF5.0
(dp455
g14
F10.727620137740445
sg15
F0.11214809273371773
ssF6.0
(dp456
g14
F13.450702517789576
sg15
F0.07644497720359962
ssF7.0
(dp457
g14
F16.075169437604306
sg15
F0.07500533544835293
ssF8.0
(dp458
g14
F18.368518753712294
sg15
F0.2037093083674077
ssF9.0
(dp459
g14
F20.572610280994986
sg15
F0.07543722797492694
ssF10.0
(dp460
g14
F22.1914874347699
sg15
F0.25726398166258485
ssF11.0
(dp461
g14
F24.068060462733968
sg15
F0.07586912050150095
ssF12.0
(dp462
g14
F25.93959474455467
sg15
F0.07889236818751902
ssF13.0
(dp463
g14
F27.880951651504844
sg15
F0.07126226688471152
ssF14.0
(dp464
g14
F29.873415840766274
sg15
F0.07572515632597628
ssF15.0
(dp465
g14
F32.27401846764014
sg15
F0.08047597411829038
ssF16.0
(dp466
g14
F34.50834247178302
sg15
F0.07486137127282827
ssF17.0
(dp467
g14
F37.398423295440764
sg15
F0.07414155039520492
ssF18.0
(dp468
g14
F40.34608978930837
sg15
F0.5128003932188736
ssssI7
(dp469
g3
I21
sg4
I23
sg5
I2
sg6
I18
sg7
I26
sg8
I0
sg9
g450
sg11
(dp470
F0.0
(dp471
g14
F11.369226253476915
sg15
F0.07815737559623842
ssF1.0
(dp472
g14
F13.689649891645026
sg15
F0.07957473732984897
ssF2.0
(dp473
g14
F15.7620352264313
sg15
F0.15854203391672197
ssF3.0
(dp474
g14
F17.687622381665047
sg15
F0.08099209906345951
ssF4.0
(dp475
g14
F19.511969413069473
sg15
F0.08159953980643546
ssF5.0
(dp476
g14
F20.708627676732085
sg15
F0.37398101742552425
ssF6.0
(dp477
g14
F22.316320843141757
sg15
F0.23548452802700853
ssF7.0
(dp478
g14
F23.61219442815711
sg15
F0.2466209416482342
ssF8.0
(dp479
g14
F24.92629123546174
sg15
F0.07086808668052708
ssF9.0
(dp480
g14
F26.191792783328296
sg15
F0.2850921887033775
ssF10.0
(dp481
g14
F27.729630264295732
sg15
F0.08868634847448816
ssF11.0
(dp482
g14
F29.227984096969735
sg15
F0.32984032343593883
ssF12.0
(dp483
g14
F30.923756171110917
sg15
F0.3610222815753707
ssF13.0
(dp484
g14
F32.64078867125626
sg15
F0.5238164006929243
ssF14.0
(dp485
g14
F35.03815480353466
sg15
F0.08362434228302194
ssF15.0
(dp486
g14
F37.13281296556338
sg15
F0.43513005221843615
ssF16.0
(dp487
g14
F39.59294797461596
sg15
F0.08666154599790168
ssF17.0
(dp488
g14
F42.01663653908999
sg15
F0.498101409240276
sssssI4
(dp489
I0
(dp490
g3
I21
sg4
I23
sg5
I1
sg6
I18
sg7
I25
sg8
I0
sg9
S'4'
p491
sg11
(dp492
F1.0
(dp493
S'Q'
p494
F4.778092782986654
sS'err'
p495
F0.0730839437865837
ssF2.0
(dp496
g494
F6.8716213168155935
sg495
F0.06802914652180557
ssF3.0
(dp497
g494
F9.49906281173672
sg495
F0.0711883948122919
ssF4.0
(dp498
g494
F12.574064481143411
sg495
F0.133320277858523
ssF5.0
(dp499
g494
F16.10926331819761
sg495
F0.08782710247551989
ssF6.0
(dp500
g494
F19.775044417925248
sg495
F0.09941101287396975
ssF7.0
(dp501
g494
F23.320774082614403
sg495
F0.09267128318759893
ssF8.0
(dp502
g494
F27.00340450655796
sg495
F0.10488704324414606
ssF9.0
(dp503
g494
F30.26058949404937
sg495
F0.10741444187653511
ssF10.0
(dp504
g494
F33.28820243909877
sg495
F0.09393498250379345
ssF11.0
(dp505
g494
F36.468512384854996
sg495
F0.0966729976888816
ssF12.0
(dp506
g494
F39.621442178760354
sg495
F0.08993326800251077
ssF13.0
(dp507
g494
F42.932334387190025
sg495
F0.07603257552437094
ssF14.0
(dp508
g494
F46.084211098331885
sg495
F0.05497092025446209
ssF15.0
(dp509
g494
F48.53473468898578
sg495
F0.07076716170689372
ssssI1
(dp510
g3
I18
sg4
I23
sg5
I2
sg6
I18
sg7
I24
sg8
I0
sg9
g491
sg11
(dp511
F2.0
(dp512
g494
F4.207143724356166
sg495
F0.05692535433988521
ssF3.0
(dp513
g494
F5.766598826140911
sg495
F0.06920924659217623
ssF4.0
(dp514
g494
F8.155216654955304
sg495
F0.07025787154054254
ssF5.0
(dp515
g494
F10.978264819521453
sg495
F0.07295433569348447
ssF6.0
(dp516
g494
F14.24997465842433
sg495
F0.06441553254250168
ssF7.0
(dp517
g494
F17.4280572697945
sg495
F0.06711199669544363
ssF8.0
(dp518
g494
F20.437610871605802
sg495
F0.07130649648890884
ssF9.0
(dp519
g494
F23.154298505694797
sg495
F0.0807441210242056
ssF10.0
(dp520
g494
F25.549657494891544
sg495
F0.3072471098713278
ssF11.0
(dp521
g494
F27.794463902215707
sg495
F0.33735762624584603
ssF12.0
(dp522
g494
F30.226524764605273
sg495
F0.07759824617910668
ssF13.0
(dp523
g494
F32.52975456190984
sg495
F0.0852382279457755
ssF14.0
(dp524
g494
F35.177532556534764
sg495
F0.08898331704708373
ssF15.0
(dp525
g494
F38.01556107750615
sg495
F0.08284137092093821
ssF16.0
(dp526
g494
F41.14945163748088
sg495
F0.0832907816130952
ssssI2
(dp527
g3
I17
sg4
I23
sg5
I1
sg6
I18
sg7
I24
sg8
I0
sg9
g371
sg11
(dp528
F0.0
(dp529
g494
F4.001097013364363
sg495
F0.021102275522271938
ssF1.0
(dp530
g494
F6.044180961657056
sg495
F0.06234763222489435
ssF2.0
(dp531
g494
F8.222511312160671
sg495
F0.06426602090873726
ssF3.0
(dp532
g494
F10.710661435104916
sg495
F0.10934815497904549
ssF4.0
(dp533
g494
F13.514386496541322
sg495
F0.0715558979073403
ssF5.0
(dp534
g494
F16.484052179130135
sg495
F0.07654370848533185
ssF6.0
(dp535
g494
F19.131428562833342
sg495
F0.08057232472140194
ssF7.0
(dp536
g494
F21.634925795248332
sg495
F0.07616003074856326
ssF8.0
(dp537
g494
F23.87464458363492
sg495
F0.07788658056402187
ssF9.0
(dp538
g494
F25.891830284695736
sg495
F0.08229887453686055
ssF10.0
(dp539
g494
F27.650992707779675
sg495
F0.33379963098866516
ssF11.0
(dp540
g494
F29.764097843032637
sg495
F0.08095600245817051
ssF12.0
(dp541
g494
F31.825406483821837
sg495
F0.07769474169563757
ssF13.0
(dp542
g494
F33.99318569656432
sg495
F0.09822150061275665
ssF14.0
(dp543
g494
F36.28757856244043
sg495
F0.08728668511485209
ssF15.0
(dp544
g494
F38.94550608390477
sg495
F0.08114784132655481
ssF16.0
(dp545
g494
F41.784721335992266
sg495
F0.08709484624646781
ssF17.0
(dp546
g494
F44.56446653888063
sg495
F0.06464969864550585
ssssI3
(dp547
g3
I19
sg4
I23
sg5
I2
sg6
I18
sg7
I24
sg8
I0
sg9
g371
sg11
(dp548
F0.0
(dp549
g494
F6.1405516013099
sg495
F0.06835129763820527
ssF1.0
(dp550
g494
F8.129926058296588
sg495
F0.07110369888538133
ssF2.0
(dp551
g494
F10.428945655590585
sg495
F0.07263281068936803
ssF3.0
(dp552
g494
F12.867114427047373
sg495
F0.0723269883285707
ssF4.0
(dp553
g494
F15.311399645720103
sg495
F0.07355027777176003
ssF5.0
(dp554
g494
F17.407811928985865
sg495
F0.07981963616810549
ssF6.0
(dp555
g494
F19.25956632361375
sg495
F0.07691432374053077
ssF7.0
(dp556
g494
F20.86589827370177
sg495
F0.07140952124617866
ssF8.0
(dp557
g494
F22.32772915831305
sg495
F0.07813761318372013
ssF9.0
(dp558
g494
F23.827787838024
sg495
F0.07614976783853743
ssF10.0
(dp559
g494
F25.274327604595417
sg495
F0.07737305728172678
ssF11.0
(dp560
g494
F26.851606430407692
sg495
F0.08058419207009883
ssF12.0
(dp561
g494
F28.42582703261199
sg495
F0.07997254734850416
ssF13.0
(dp562
g494
F30.20877139606048
sg495
F0.08165457033288952
ssF14.0
(dp563
g494
F32.28989256128637
sg495
F0.09174670823920171
ssF15.0
(dp564
g494
F34.13476595279632
sg495
F0.4350323082342148
ssF16.0
(dp565
g494
F36.3665046307149
sg495
F0.08746519518803897
ssssI4
(dp566
g3
I15
sg4
I23
sg5
I1
sg6
I17
sg7
I24
sg8
I0
sg9
g167
sg11
(dp567
F3.0
(dp568
g494
F5.236298949371533
sg495
F0.11182174675899456
ssF4.0
(dp569
g494
F8.163005303411618
sg495
F0.1136002238446247
ssF5.0
(dp570
g494
F11.62436633131926
sg495
F0.1082647925877343
ssF6.0
(dp571
g494
F15.528123534277402
sg495
F0.11915796473721886
ssF7.0
(dp572
g494
F19.95541992931791
sg495
F0.12849496943677705
ssF8.0
(dp573
g494
F23.893635125810135
sg495
F0.2834447855223023
ssF9.0
(dp574
g494
F27.990801711830553
sg495
F0.3292405704772782
ssF10.0
(dp575
g494
F31.496624666878947
sg495
F0.3890418624815914
ssF11.0
(dp576
g494
F34.72456057729764
sg495
F0.7193939811373884
ssF12.0
(dp577
g494
F38.74058414628619
sg495
F0.134275019965075
ssF13.0
(dp578
g494
F42.168598728838255
sg495
F0.13116268506522225
ssF14.0
(dp579
g494
F45.58549782960515
sg495
F0.1289395887081846
ssF15.0
(dp580
g494
F49.063532080190576
sg495
F0.10270705169514013
ssF16.0
(dp581
g494
F52.57157813159601
sg495
F0.08403304229602374
ssF17.0
(dp582
g494
F54.609045942821034
sg495
F0.7076115704450888
ssssI5
(dp583
g3
I15
sg4
I23
sg5
I2
sg6
I17
sg7
I24
sg8
I0
sg9
g167
sg11
(dp584
F0.0
(dp585
g494
F6.2993753107826445
sg495
F0.1102419540864397
ssF1.0
(dp586
g494
F9.167278430800991
sg495
F0.09109572805680209
ssF2.0
(dp587
g494
F12.124866504326594
sg495
F0.09855267924729252
ssF3.0
(dp588
g494
F15.43514821524025
sg495
F0.08988649272861446
ssF4.0
(dp589
g494
F18.91069208767289
sg495
F0.2678456251935619
ssF5.0
(dp590
g494
F22.399336009494224
sg495
F0.10500193433095995
ssF6.0
(dp591
g494
F25.346847121951594
sg495
F0.09794806158319873
ssF7.0
(dp592
g494
F27.869110477329645
sg495
F0.3484613137394045
ssF8.0
(dp593
g494
F30.392381528814514
sg495
F0.10278500289594926
ssF9.0
(dp594
g494
F32.680859387409626
sg495
F0.1009711499036678
ssF10.0
(dp595
g494
F34.75772106357189
sg495
F0.46112173848221943
ssF11.0
(dp596
g494
F37.29812294887275
sg495
F0.10903271875825207
ssF12.0
(dp597
g494
F39.918132826612634
sg495
F0.10238192445322006
ssF13.0
(dp598
g494
F42.615735304577896
sg495
F0.5369004857153115
ssF14.0
(dp599
g494
F45.710370048631425
sg495
F0.10500193433095995
ssF15.0
(dp600
g494
F48.537965324376856
sg495
F0.8954387605229462
ssssI6
(dp601
g3
I15
sg4
I23
sg5
I1
sg6
I17
sg7
I24
sg8
I0
sg9
S'6'
p602
sg11
(dp603
F0.0
(dp604
g494
F4.590959782752933
sg495
F0.06610684196124596
ssF1.0
(dp605
g494
F6.601999501363466
sg495
F0.06146776533238659
ssF2.0
(dp606
g494
F8.883265433605061
sg495
F0.062395580658158464
ssF3.0
(dp607
g494
F11.747895251925717
sg495
F0.06401925747825923
ssF4.0
(dp608
g494
F14.980171893083481
sg495
F0.07074591859010532
ssF5.0
(dp609
g494
F18.16837730626708
sg495
F0.07260154924164906
ssF6.0
(dp610
g494
F21.171019654296305
sg495
F0.0716737339158772
ssF7.0
(dp611
g494
F24.133070081823007
sg495
F0.07399327223030688
ssF8.0
(dp612
g494
F26.65556799876529
sg495
F0.08164774866792483
ssF9.0
(dp613
g494
F29.191983145594147
sg495
F0.07584890288185063
ssF10.0
(dp614
g494
F31.562551302941287
sg495
F0.0709778724215483
ssF11.0
(dp615
g494
F34.12448137122887
sg495
F0.07352936456742094
ssF12.0
(dp616
g494
F36.85921704394146
sg495
F0.08651877912822717
ssF13.0
(dp617
g494
F39.618307868955576
sg495
F0.5035717680626841
ssF14.0
(dp618
g494
F42.763601823322226
sg495
F0.08118384100503889
ssssI7
(dp619
g3
I17
sg4
I23
sg5
I2
sg6
I18
sg7
I24
sg8
I0
sg9
g602
sg11
(dp620
F0.0
(dp621
g494
F7.784046314732461
sg495
F0.06618024885574769
ssF1.0
(dp622
g494
F10.331674703286009
sg495
F0.06763248002186127
ssF2.0
(dp623
g494
F12.965399653830573
sg495
F0.07613840542338371
ssF3.0
(dp624
g494
F15.655139235068091
sg495
F0.06949963437829304
ssF4.0
(dp625
g494
F18.22973763099232
sg495
F0.07406378947179287
ssF5.0
(dp626
g494
F20.404972456235313
sg495
F0.06763248002186127
ssF6.0
(dp627
g494
F22.467140712116606
sg495
F0.07115932713956571
ssF7.0
(dp628
g494
F24.092602310188028
sg495
F0.2910686180081944
ssF8.0
(dp629
g494
F25.654788121735926
sg495
F0.3103625463579892
ssF9.0
(dp630
g494
F27.501196318651772
sg495
F0.06555786407027045
ssF10.0
(dp631
g494
F29.288477960947276
sg495
F0.0763458670185428
ssF11.0
(dp632
g494
F31.101692302637666
sg495
F0.07655332861370188
ssF12.0
(dp633
g494
F33.11718169960817
sg495
F0.07240409671052021
ssF13.0
(dp634
g494
F35.09117877754685
sg495
F0.4439678136404391
ssF14.0
(dp635
g494
F37.64606832193097
sg495
F0.0800801757314063
ssF15.0
(dp636
g494
F40.2175547939278
sg495
F0.07862794456529272
sssssI5
(dp637
I0
(dp638
g3
I15
sg4
I23
sg5
I1
sg6
I17
sg7
I24
sg8
I0
sg9
S'9'
p639
sg11
(dp640
F1.0
(dp641
g494
F4.259969633213534
sg495
F0.057294271621669286
ssF2.0
(dp642
g494
F6.163522416230027
sg495
F0.05907236970647972
ssF3.0
(dp643
g494
F8.528392869027893
sg495
F0.06401153105317535
ssF4.0
(dp644
g494
F11.501767999738664
sg495
F0.06499936332251446
ssF5.0
(dp645
g494
F14.767541482173813
sg495
F0.06578962913798578
ssF6.0
(dp646
g494
F18.209149108551326
sg495
F0.06756772722279619
ssF7.0
(dp647
g494
F21.394908177170006
sg495
F0.06559206268411794
ssF8.0
(dp648
g494
F24.0936659370045
sg495
F0.28963242137023165
ssF9.0
(dp649
g494
F26.599796404317857
sg495
F0.31472336101144543
ssF10.0
(dp650
g494
F29.15235498829016
sg495
F0.07487768601590572
ssF11.0
(dp651
g494
F31.433259698194206
sg495
F0.06737016076892838
ssF12.0
(dp652
g494
F33.88604722296325
sg495
F0.06855555949213532
ssF13.0
(dp653
g494
F36.36254272219644
sg495
F0.07369228729269878
ssF14.0
(dp654
g494
F39.03956817210547
sg495
F0.07013609112307792
ssF15.0
(dp655
g494
F42.074188903515264
sg495
F0.07487768601590572
ssF16.0
(dp656
g494
F45.15128642250664
sg495
F0.06875312594600315
ssssI1
(dp657
g3
I15
sg4
I23
sg5
I2
sg6
I17
sg7
I24
sg8
I0
sg9
g639
sg11
(dp658
F0.0
(dp659
g494
F9.1954629992479
sg495
F0.07705277430113702
ssF1.0
(dp660
g494
F11.619103587030205
sg495
F0.07022261148219967
ssF2.0
(dp661
g494
F14.263657253487509
sg495
F0.07641244653686165
ssF3.0
(dp662
g494
F16.847379782338656
sg495
F0.07555867618449448
ssF4.0
(dp663
g494
F19.408690839440162
sg495
F0.08473670747244155
ssF5.0
(dp664
g494
F21.62315769089251
sg495
F0.07641244653686165
ssF6.0
(dp665
g494
F23.485444271993394
sg495
F0.07662588912495344
ssF7.0
(dp666
g494
F25.100137450907802
sg495
F0.2998868362689682
ssF8.0
(dp667
g494
F26.810879794463517
sg495
F0.08153506865106466
ssF9.0
(dp668
g494
F28.434110676901597
sg495
F0.07363769289166835
ssF10.0
(dp669
g494
F29.9762333758648
sg495
F0.07833342982968777
ssF11.0
(dp670
g494
F31.580254425374616
sg495
F0.07982752794633033
ssF12.0
(dp671
g494
F33.40198691473806
sg495
F0.08025441312251391
ssF13.0
(dp672
g494
F35.40941445574137
sg495
F0.08132162606297287
ssF14.0
(dp673
g494
F37.17992072396279
sg495
F0.08559047782480872
ssF15.0
(dp674
g494
F39.39652200129605
sg495
F0.078119987241596
ssF16.0
(dp675
g494
F41.71984457267521
sg495
F0.08196195382724825
ssssI2
(dp676
g3
I16
sg4
I23
sg5
I1
sg6
I17
sg7
I24
sg8
I0
sg9
S'33'
p677
sg11
(dp678
F0.0
(dp679
g494
F7.364133156147266
sg495
F0.07656340928340498
ssF1.0
(dp680
g494
F9.747010894246618
sg495
F0.0693233705804825
ssF2.0
(dp681
g494
F12.450260344950289
sg495
F0.07149538219135924
ssF3.0
(dp682
g494
F15.269350414900725
sg495
F0.1677878969402279
ssF4.0
(dp683
g494
F18.179845973475548
sg495
F0.0698663734832017
ssF5.0
(dp684
g494
F20.816125066177186
sg495
F0.07439139767252824
ssF6.0
(dp685
g494
F23.35375863155151
sg495
F0.0637123405857176
ssF7.0
(dp686
g494
F25.48052000053498
sg495
F0.07022837541834781
ssF8.0
(dp687
g494
F27.385555184241447
sg495
F0.07167638315893231
ssF9.0
(dp688
g494
F29.415481035573336
sg495
F0.07167638315893231
ssF10.0
(dp689
g494
F31.531382346502426
sg495
F0.06769436187232496
ssF11.0
(dp690
g494
F33.551353144617785
sg495
F0.4179312341261987
ssF12.0
(dp691
g494
F35.93242087304141
sg495
F0.07167638315893231
ssF13.0
(dp692
g494
F38.411229123954485
sg495
F0.07819241799156253
ssF14.0
(dp693
g494
F41.21131409230974
sg495
F0.08036442960243927
ssssI3
(dp694
g3
I16
sg4
I23
sg5
I2
sg6
I18
sg7
I24
sg8
I0
sg9
g677
sg11
(dp695
F0.0
(dp696
g494
F6.3061733967301645
sg495
F0.07777035605431633
ssF1.0
(dp697
g494
F8.82654690938518
sg495
F0.08350080334252911
ssF2.0
(dp698
g494
F11.797169851828343
sg495
F0.08841261530385436
ssF3.0
(dp699
g494
F15.210879164949388
sg495
F0.09250579193829206
ssF4.0
(dp700
g494
F18.727941188089986
sg495
F0.09844089805822671
ssF5.0
(dp701
g494
F21.997366024847096
sg495
F0.09721294506789542
ssF6.0
(dp702
g494
F25.060085441565107
sg495
F0.09864555688994862
ssF7.0
(dp703
g494
F27.66129919275027
sg495
F0.09721294506789542
ssF8.0
(dp704
g494
F30.139717644902294
sg495
F0.10273873352438631
ssF9.0
(dp705
g494
F32.59357703724769
sg495
F0.101510780534055
ssF10.0
(dp706
g494
F35.04231995880006
sg495
F0.1002828275437237
ssF11.0
(dp707
g494
F37.534041235014
sg495
F0.0935290860969015
ssF12.0
(dp708
g494
F40.445313116257815
sg495
F0.09864555688994862
ssF13.0
(dp709
g494
F43.34839864423276
sg495
F0.10601327483193647
ssF14.0
(dp710
g494
F46.697640425361406
sg495
F0.10069214520716746
ssF15.0
(dp711
g494
F50.00902032262151
sg495
F0.07879365021292577
ssssI4
(dp712
g3
I14
sg4
I23
sg5
I1
sg6
I17
sg7
I24
sg8
I0
sg9
S'38'
p713
sg11
(dp714
F0.0
(dp715
g494
F8.95503645385042
sg495
F0.0636004072346461
ssF1.0
(dp716
g494
F11.45536556254793
sg495
F0.0615684453421654
ssF2.0
(dp717
g494
F14.117235641697654
sg495
F0.06563236912712682
ssF3.0
(dp718
g494
F16.824824863428194
sg495
F0.0581141101249482
ssF4.0
(dp719
g494
F19.293658562792256
sg495
F0.06014607201742891
ssF5.0
(dp720
g494
F21.52373673978983
sg495
F0.06095885677442119
ssF6.0
(dp721
g494
F23.62580131756112
sg495
F0.05648854061096364
ssF7.0
(dp722
g494
F25.394624144965576
sg495
F0.058723698692692415
ssF8.0
(dp723
g494
F27.284348704972633
sg495
F0.06095885677442119
ssF9.0
(dp724
g494
F28.92820587598952
sg495
F0.35762529307660434
ssF10.0
(dp725
g494
F30.775259236254488
sg495
F0.05384699015073872
ssF11.0
(dp726
g494
F32.66701575815402
sg495
F0.06746113483035945
ssF12.0
(dp727
g494
F34.5699480704622
sg495
F0.06278762247765382
ssF13.0
(dp728
g494
F36.841681466255636
sg495
F0.07376021669704964
ssssI5
(dp729
g3
I18
sg4
I23
sg5
I2
sg6
I19
sg7
I24
sg8
I0
sg9
g713
sg11
(dp730
F2.0
(dp731
g494
F3.5021816709161446
sg495
F0.0773493981220428
ssF3.0
(dp732
g494
F5.1220194820038
sg495
F0.07863498368639808
ssF4.0
(dp733
g494
F7.6374819029256376
sg495
F0.08270600464018982
ssF5.0
(dp734
g494
F10.612541163104485
sg495
F0.12341621417810708
ssF6.0
(dp735
g494
F14.390020079701754
sg495
F0.0893481967226921
ssF7.0
(dp736
g494
F17.97894644686025
sg495
F0.09191936785140267
ssF8.0
(dp737
g494
F21.56144488619697
sg495
F0.1015612595840673
ssF9.0
(dp738
g494
F24.972531916952985
sg495
F0.09513333176229088
ssF10.0
(dp739
g494
F27.96580363929353
sg495
F0.10413243071277786
ssF11.0
(dp740
g494
F30.808019057822335
sg495
F0.09899008845535673
ssF12.0
(dp741
g494
F33.93520594311656
sg495
F0.10006140975898613
ssF13.0
(dp742
g494
F37.008826763229315
sg495
F0.10327537366987434
ssF14.0
(dp743
g494
F40.13601364852354
sg495
F0.10134699532334142
ssF15.0
(dp744
g494
F43.22677560949436
sg495
F0.08270600464018982
ssF16.0
(dp745
g494
F45.924362652033196
sg495
F0.06813603491082995
ssF17.0
(dp746
g494
F47.79810361208102
sg495
F0.07542101977550988
ssssI6
(dp747
g3
I14
sg4
I23
sg5
I1
sg6
I17
sg7
I24
sg8
I0
sg9
S'34'
p748
sg11
(dp749
F1.0
(dp750
g494
F3.8696657930348075
sg495
Fnan
ssF2.0
(dp751
g494
F4.99249098201172
sg495
F0.06477018167912346
ssF3.0
(dp752
g494
F7.087934195216253
sg495
F0.06711383956882859
ssF4.0
(dp753
g494
F9.635064201709417
sg495
F0.07137503573192881
ssF5.0
(dp754
g494
F12.691407149693054
sg495
F0.07414481323794396
ssF6.0
(dp755
g494
F15.80847214300087
sg495
F0.06988361707484374
ssF7.0
(dp756
g494
F18.88185987563691
sg495
F0.07947130844181925
ssF8.0
(dp757
g494
F21.490777226495023
sg495
F0.08565004287831457
ssF9.0
(dp758
g494
F24.096498680230813
sg495
F0.0784060094010442
ssF10.0
(dp759
g494
F26.367716235163236
sg495
F0.07691459074395911
ssF11.0
(dp760
g494
F28.534534484099698
sg495
F0.08138884671521435
ssF12.0
(dp761
g494
F30.768466572604996
sg495
F0.09289407635558497
ssF13.0
(dp762
g494
F33.13449574216639
sg495
F0.41440132686149717
ssF14.0
(dp763
g494
F35.83502881053116
sg495
F0.07925824863366425
ssF15.0
(dp764
g494
F38.630373493524914
sg495
F0.08288026537229944
ssF16.0
(dp765
g494
F41.77194036477056
sg495
F0.0673268993769836
ssssI7
(dp766
g3
I12
sg4
I23
sg5
I2
sg6
I18
sg7
I23
sg8
I0
sg9
g748
sg11
(dp767
F3.0
(dp768
g494
F4.979597353922571
sg495
F0.07853729692733569
ssF4.0
(dp769
g494
F7.430188662394362
sg495
F0.08468369407817065
ssF5.0
(dp770
g494
F10.219970035856676
sg495
F0.0887812921787273
ssF6.0
(dp771
g494
F13.780327496562563
sg495
F0.09970822044687835
ssF7.0
(dp772
g494
F17.380522716579414
sg495
F0.107448127970152
ssF8.0
(dp773
g494
F21.07405211555339
sg495
F0.1022123081749963
ssF9.0
(dp774
g494
F24.172291568252053
sg495
F0.1006187978025576
ssF10.0
(dp775
g494
F27.098659545066255
sg495
F0.10403346288635482
ssF11.0
(dp776
g494
F29.43998157085654
sg495
F0.35262108098679124
ssF12.0
(dp777
g494
F32.12504654841574
sg495
F0.10539932891987369
ssF13.0
(dp778
g494
F34.68263069617984
sg495
F0.10016350912471798
ssF14.0
(dp779
g494
F37.34037835306867
sg495
F0.09743177705768022
ssF15.0
(dp780
g494
F40.08235441535782
sg495
F0.09515533366848207
ssF16.0
(dp781
g494
F42.547742605859405
sg495
F0.08445604973925083
ssF17.0
(dp782
g494
F45.174758276994055
sg495
F0.06874859035378371
ssF18.0
(dp783
g494
F47.368111482486455
sg495
F0.6000704773926286
sssssI6
(dp784
I0
(dp785
g3
I16
sg4
I23
sg5
I1
sg6
I17
sg7
I24
sg8
I0
sg9
S'37'
p786
sg11
(dp787
F0.0
(dp788
g494
F4.031794010428855
sg495
Fnan
ssF1.0
(dp789
g494
F5.917465564177507
sg495
F0.06402331694358172
ssF2.0
(dp790
g494
F8.252662534764074
sg495
F0.06246651896319068
ssF3.0
(dp791
g494
F11.005275963842992
sg495
F0.11364625256854628
ssF4.0
(dp792
g494
F14.255091747909297
sg495
F0.14089021722538958
ssF5.0
(dp793
g494
F17.743292222722985
sg495
F0.0784236982621989
ssF6.0
(dp794
g494
F21.262628657144486
sg495
F0.08231569321317651
ssF7.0
(dp795
g494
F24.48228148034072
sg495
F0.08270489270827426
ssF8.0
(dp796
g494
F27.47717159511799
sg495
F0.09126728160042502
ssF9.0
(dp797
g494
F30.29692193710127
sg495
F0.09165648109552277
ssF10.0
(dp798
g494
F32.87536859212394
sg495
F0.39562128676687425
ssF11.0
(dp799
g494
F35.58419707800436
sg495
F0.4316222400634172
ssF12.0
(dp800
g494
F38.878770804006905
sg495
F0.10002427024012464
ssF13.0
(dp801
g494
F42.19280450476434
sg495
F0.0914618813479739
ssF14.0
(dp802
g494
F45.52629818027667
sg495
F0.07355870457347687
ssssI1
(dp803
g3
I16
sg4
I23
sg5
I2
sg6
I17
sg7
I24
sg8
I0
sg9
g786
sg11
(dp804
F0.0
(dp805
g494
F6.007019759447099
sg495
F0.06080851517298965
ssF1.0
(dp806
g494
F8.130120481512591
sg495
F0.06860447865670627
ssF2.0
(dp807
g494
F10.589313851542755
sg495
F0.07085664588533552
ssF3.0
(dp808
g494
F13.248603617654986
sg495
F0.07761314757122327
ssF4.0
(dp809
g494
F16.059481562617254
sg495
F0.08038504569876694
ssF5.0
(dp810
g494
F18.59923322197916
sg495
F0.08229072566145323
ssF6.0
(dp811
g494
F20.815885505849252
sg495
F0.08454289289008247
ssF7.0
(dp812
g494
F22.831575175472423
sg495
F0.27770954365328326
ssF8.0
(dp813
g494
F24.786629573555587
sg495
F0.08488938015602544
ssF9.0
(dp814
g494
F26.53985513922697
sg495
F0.32465856818855443
ssF10.0
(dp815
g494
F28.47758517401298
sg495
F0.08402316199116804
ssF11.0
(dp816
g494
F30.369405646061544
sg495
F0.08142450749659583
ssF12.0
(dp817
g494
F32.44226571456531
sg495
F0.41110714104132323
ssF13.0
(dp818
g494
F34.816569704439445
sg495
F0.08506262378899693
ssF14.0
(dp819
g494
F37.43601343496823
sg495
F0.08575559832088285
ssF15.0
(dp820
g494
F39.839768842447526
sg495
F0.07570746760853697
ssssI2
(dp821
g3
I17
sg4
I23
sg5
I1
sg6
I20
sg7
I24
sg8
I0
sg9
S'36'
p822
sg11
(dp823
F1.0
(dp824
g494
F4.025610008427255
sg495
Fnan
ssF2.0
(dp825
g494
F5.093467043275089
sg495
F0.06242252519882563
ssF3.0
(dp826
g494
F7.182069773198062
sg495
F0.0710596041571537
ssF4.0
(dp827
g494
F9.654433625019474
sg495
F0.07635962988158229
ssF5.0
(dp828
g494
F12.39081727681705
sg495
F0.07714481887779394
ssF6.0
(dp829
g494
F15.166460378425205
sg495
F0.09068932906244477
ssF7.0
(dp830
g494
F17.697713404962492
sg495
F0.08617449233422782
ssF8.0
(dp831
g494
F19.88348327316665
sg495
F0.08892265382096858
ssF9.0
(dp832
g494
F21.854307653657877
sg495
F0.08931524831907439
ssF10.0
(dp833
g494
F23.658279372454125
sg495
F0.085781897836122
ssF11.0
(dp834
g494
F25.391584081591326
sg495
F0.09755973277929665
ssF12.0
(dp835
g494
F27.029684624937868
sg495
F0.08381892534559289
ssF13.0
(dp836
g494
F28.97891630803327
sg495
F0.08695968133043946
ssF14.0
(dp837
g494
F30.77209167813161
sg495
F0.0873522758285453
ssF15.0
(dp838
g494
F33.0373619322022
sg495
F0.09441897679445008
ssF16.0
(dp839
g494
F35.47439227919409
sg495
F0.09540046303971464
ssF17.0
(dp840
g494
F37.930070864846
sg495
F0.07223738765147117
ssF18.0
(dp841
g494
F40.25423029363247
sg495
F0.06242252519882563
ssF19.0
(dp842
g494
F42.21425832542578
sg495
F0.06418920044030182
ssF20.0
(dp843
g494
F43.574598261362446
sg495
F0.10148567776035486
ssssI3
(dp844
g3
I15
sg4
I23
sg5
I2
sg6
I18
sg7
I24
sg8
I0
sg9
g822
sg11
(dp845
F0.0
(dp846
g494
F5.16712568958549
sg495
F0.08405691501538574
ssF1.0
(dp847
g494
F7.458029380592348
sg495
F0.08244431232923925
ssF2.0
(dp848
g494
F10.309312505035106
sg495
F0.0941356818038013
ssF3.0
(dp849
g494
F13.449856236305395
sg495
F0.0941356818038013
ssF4.0
(dp850
g494
F16.58334483082379
sg495
F0.10240027057030207
ssF5.0
(dp851
g494
F19.636203291034864
sg495
F0.10421444859221686
ssF6.0
(dp852
g494
F22.411895664564508
sg495
F0.11106801000833944
ssF7.0
(dp853
g494
F24.78342948987869
sg495
F0.11106801000833944
ssF8.0
(dp854
g494
F26.919120172343945
sg495
F0.11086643467257114
ssF9.0
(dp855
g494
F28.958054693640413
sg495
F0.10824595530758309
ssF10.0
(dp856
g494
F30.975823804681205
sg495
F0.10401287325644856
ssF11.0
(dp857
g494
F33.012742572619985
sg495
F0.1086491059791197
ssF12.0
(dp858
g494
F35.20487434910037
sg495
F0.10562547594259504
ssF13.0
(dp859
g494
F37.51089619028985
sg495
F0.09534513381841118
ssF14.0
(dp860
g494
F39.841107071771525
sg495
F0.09957821586954571
ssF15.0
(dp861
g494
F42.22473541723181
sg495
F0.0830490383365442
ssF16.0
(dp862
g494
F44.71015930725509
sg495
F0.08264588766500756
ssF17.0
(dp863
g494
F46.36106130719756
sg495
F0.10320657191337532
ssF18.0
(dp864
g494
F47.54027702144217
sg495
F0.12618616019096277
ssssI4
(dp865
g3
I17
sg4
I23
sg5
I1
sg6
I18
sg7
I24
sg8
I0
sg9
g10
sg11
(dp866
F0.0
(dp867
g494
F7.808644473573797
sg495
F0.06459117749814422
ssF1.0
(dp868
g494
F10.241216970667772
sg495
F0.06730509251907466
ssF2.0
(dp869
g494
F12.761539386771831
sg495
F0.07743704193054826
ssF3.0
(dp870
g494
F15.664523820827078
sg495
F0.06368653915783408
ssF4.0
(dp871
g494
F18.103428786303226
sg495
F0.06947622453581899
ssF5.0
(dp872
g494
F20.427444682559983
sg495
F0.2332157641319549
ssF6.0
(dp873
g494
F22.525300993739208
sg495
F0.06477210516620625
ssF7.0
(dp874
g494
F24.392474528139342
sg495
F0.0626009731494619
ssF8.0
(dp875
g494
F26.189086271995286
sg495
F0.07472312690961783
ssF9.0
(dp876
g494
F27.985698015851227
sg495
F0.07019993520806711
ssF10.0
(dp877
g494
F29.813972101618027
sg495
F0.07219013955674942
ssF11.0
(dp878
g494
F31.78608368349414
sg495
F0.07436127157349377
ssF12.0
(dp879
g494
F33.67677781474234
sg495
F0.43295990967243453
ssF13.0
(dp880
g494
F36.169056442296785
sg495
F0.07526590991380391
ssF14.0
(dp881
g494
F38.5609202140768
sg495
F0.07381848856930769
ssF15.0
(dp882
g494
F41.180752847614976
sg495
F0.0732757055651216
ssssI5
(dp883
g3
I16
sg4
I23
sg5
I2
sg6
I18
sg7
I24
sg8
I0
sg9
g10
sg11
(dp884
F0.0
(dp885
g494
F8.708750125139307
sg495
F0.07146425814138117
ssF1.0
(dp886
g494
F11.328357155751574
sg495
F0.1171594336825159
ssF2.0
(dp887
g494
F14.194418493790613
sg495
F0.0834498779554493
ssF3.0
(dp888
g494
F17.085200172696165
sg495
F0.08090293374495983
ssF4.0
(dp889
g494
F19.895078917856765
sg495
F0.08045347300193227
ssF5.0
(dp890
g494
F22.429288407293793
sg495
F0.06637036972040222
ssF6.0
(dp891
g494
F24.648126275373155
sg495
F0.0791050907728496
ssF7.0
(dp892
g494
F26.73212592054425
sg495
F0.08704556389966973
ssF8.0
(dp893
g494
F28.583904181817772
sg495
F0.07805634903911864
ssF9.0
(dp894
g494
F30.70760619262297
sg495
F0.07955455151587715
ssF10.0
(dp895
g494
F32.78561302788703
sg495
F0.08165203498333908
ssF11.0
(dp896
g494
F34.94677010061119
sg495
F0.0871953841473456
ssF12.0
(dp897
g494
F37.50944543710663
sg495
F0.09288855355902795
ssF13.0
(dp898
g494
F40.13654348010268
sg495
F0.0849480804322078
ssF14.0
(dp899
g494
F42.702964322790024
sg495
F0.5435478585679894
ssF15.0
(dp900
g494
F44.56597910263923
sg495
F1.850579699292118
ssssI6
(dp901
g3
g52
sg4
g52
sg5
I0
sg6
g52
sg7
g52
sg8
g52
sg9
I1
sg11
g52
ssI7
(dp902
g3
g52
sg4
g52
sg5
I1
sg6
g52
sg7
g52
sg8
g52
sg9
I1
sg11
g52
sssI7
(dp903
I0
(dp904
g3
g52
sg4
g52
sg5
I0
sg6
g52
sg7
g52
sg8
g52
sg9
I2
sg11
g52
ssI1
(dp905
g3
g52
sg4
g52
sg5
I1
sg6
g52
sg7
g52
sg8
g52
sg9
I2
sg11
g52
ssI2
(dp906
g3
I16
sg4
I23
sg5
I1
sg6
I21
sg7
I24
sg8
I0
sg9
S'19'
p907
sg11
(dp908
F0.0
(dp909
g494
F11.467244799547998
sg495
F0.06627090272247342
ssF1.0
(dp910
g494
F13.74888367879527
sg495
F0.06700929718177676
ssF2.0
(dp911
g494
F15.873613735440586
sg495
F0.07291645285620335
ssF3.0
(dp912
g494
F17.27287123582039
sg495
F0.5499192735661513
ssF4.0
(dp913
g494
F19.436367001579132
sg495
F0.07125506532277087
ssF5.0
(dp914
g494
F20.835624501958936
sg495
F0.06737849441142842
ssF6.0
(dp915
g494
F22.01797862991838
sg495
F0.07494703761928749
ssF7.0
(dp916
g494
F23.15049113187486
sg495
F0.0690398819448609
ssF8.0
(dp917
g494
F24.347613149020372
sg495
F0.06996287501899005
ssF9.0
(dp918
g494
F25.39244130893458
sg495
F0.2992343546326725
ssF10.0
(dp919
g494
F26.64771188975023
sg495
F0.07162426255242253
ssF11.0
(dp920
g494
F27.910366415158915
sg495
F0.06830148748555757
ssF12.0
(dp921
g494
F29.19701876049496
sg495
F0.07457784038963583
ssF13.0
(dp922
g494
F30.54181966950114
sg495
F0.07383944593033251
ssF14.0
(dp923
g494
F32.16259550767194
sg495
F0.0690398819448609
ssF15.0
(dp924
g494
F33.719684823727825
sg495
F0.07033207224864171
ssF16.0
(dp925
g494
F35.48629356761103
sg495
F0.07587003069341666
ssF17.0
(dp926
g494
F37.399658210280776
sg495
F0.07697762238237164
ssF18.0
(dp927
g494
F39.40624515343756
sg495
F0.0808541932937141
ssF19.0
(dp928
g494
F41.50974636937791
sg495
F0.07605462930824249
ssF20.0
(dp929
g494
F43.78400130403215
sg495
F0.07033207224864171
ssssI3
(dp930
g3
I16
sg4
I23
sg5
I2
sg6
I19
sg7
I24
sg8
I0
sg9
g907
sg11
(dp931
F1.0
(dp932
g494
F4.891158515929316
sg495
F0.07543407466404657
ssF2.0
(dp933
g494
F6.875793099352449
sg495
F0.07381763020695986
ssF3.0
(dp934
g494
F9.248374352476386
sg495
F0.0669926424992604
ssF4.0
(dp935
g494
F12.138217831868076
sg495
F0.08207945743206972
ssF5.0
(dp936
g494
F14.920298347453986
sg495
F0.07184197587052055
ssF6.0
(dp937
g494
F17.457218120381743
sg495
F0.07004592647375753
ssF7.0
(dp938
g494
F19.843269743981406
sg495
F0.067351852378613
ssF8.0
(dp939
g494
F21.939259390003844
sg495
F0.08513274140656685
ssF9.0
(dp940
g494
F23.771229774702118
sg495
F0.0660946178008789
ssF10.0
(dp941
g494
F25.320322379410218
sg495
F0.07184197587052055
ssF11.0
(dp942
g494
F26.977177947924094
sg495
F0.06932750671505232
ssF12.0
(dp943
g494
F28.745388579037282
sg495
F0.07866696357821999
ssF13.0
(dp944
g494
F30.47678019751683
sg495
F0.07022553141343384
ssF14.0
(dp945
g494
F32.37610243459371
sg495
F0.07399723514663617
ssF15.0
(dp946
g494
F34.365227141508754
sg495
F0.07184197587052055
ssF16.0
(dp947
g494
F36.83389703735951
sg495
F0.0678906671976419
ssF17.0
(dp948
g494
F39.400451625333865
sg495
F0.08279787719077493
ssF18.0
(dp949
g494
F40.169160767148426
sg495
F2.543744760635456
ssssI4
(dp950
g3
I16
sg4
I23
sg5
I1
sg6
I17
sg7
I24
sg8
I0
sg9
S'52'
p951
sg11
(dp952
F1.0
(dp953
g494
F4.687972562762811
sg495
F0.2103015508700518
ssF2.0
(dp954
g494
F6.7468161268646005
sg495
F0.07886308157626944
ssF3.0
(dp955
g494
F9.30124736207409
sg495
F0.07972497317819588
ssF4.0
(dp956
g494
F12.248916640662523
sg495
F0.0760619338700085
ssF5.0
(dp957
g494
F15.336643304564003
sg495
F0.16203562116217107
ssF6.0
(dp958
g494
F18.67216380401933
sg495
F0.07972497317819588
ssF7.0
(dp959
g494
F21.586434783033113
sg495
F0.07541551516856367
ssF8.0
(dp960
g494
F23.8855306311719
sg495
F0.43611715057477957
ssF9.0
(dp961
g494
F26.402254108797106
sg495
F0.08080233768060392
ssF10.0
(dp962
g494
F28.71212360195997
sg495
F0.08381895828734648
ssF11.0
(dp963
g494
F30.624445593734265
sg495
F0.527693133279464
ssF12.0
(dp964
g494
F33.20257884799673
sg495
F0.08855936209794191
ssF13.0
(dp965
g494
F35.47043112556568
sg495
F0.4255589784511807
ssF14.0
(dp966
g494
F38.303899766898866
sg495
F0.47597963716387753
ssF15.0
(dp967
g494
F41.02855459348883
sg495
F0.7280829307273617
ssssI5
(dp968
g3
I16
sg4
I23
sg5
I2
sg6
I18
sg7
I24
sg8
I0
sg9
g951
sg11
(dp969
F0.0
(dp970
g494
F9.223570804534265
sg495
F0.08026991561211635
ssF1.0
(dp971
g494
F11.610597420049578
sg495
F0.1320440111819314
ssF2.0
(dp972
g494
F14.30365308883608
sg495
F0.08488543575981305
ssF3.0
(dp973
g494
F16.883327501820467
sg495
F0.0794672164559952
ssF4.0
(dp974
g494
F19.041584857841247
sg495
F0.3708470101279776
ssF5.0
(dp975
g494
F21.3884765155505
sg495
F0.08629015928302508
ssF6.0
(dp976
g494
F23.30793087262523
sg495
F0.08448408618175247
ssF7.0
(dp977
g494
F24.87821109678726
sg495
F0.3210796624484654
ssF8.0
(dp978
g494
F26.641139118418362
sg495
F0.08207598871338898
ssF9.0
(dp979
g494
F27.854218218106475
sg495
F0.5490462227868759
ssF10.0
(dp980
g494
F29.754608470223328
sg495
F0.0923104029539338
ssF11.0
(dp981
g494
F31.401145114216867
sg495
F0.08950095590750974
ssF12.0
(dp982
g494
F33.005540052514036
sg495
F0.4089752200437328
ssF13.0
(dp983
g494
F34.84873798975726
sg495
F0.4892451356558492
ssF14.0
(dp984
g494
F36.944786161178655
sg495
F0.4762012743688803
ssF15.0
(dp985
g494
F39.31074192384578
sg495
F0.08528678533787364
ssF16.0
(dp986
g494
F41.46699253197626
sg495
F0.5229585002129381
ssssI6
(dp987
g3
I13
sg4
I23
sg5
I1
sg6
I18
sg7
I23
sg8
I0
sg9
S'32'
p988
sg11
(dp989
F0.0
(dp990
g494
F7.472764661239399
sg495
F0.06914069373376275
ssF1.0
(dp991
g494
F9.961652805236104
sg495
F0.07179315001510914
ssF2.0
(dp992
g494
F12.75468926949386
sg495
F0.07462243671521196
ssF3.0
(dp993
g494
F15.461078828560966
sg495
F0.07868953634660977
ssF4.0
(dp994
g494
F17.980028143746264
sg495
F0.0788663667653662
ssF5.0
(dp995
g494
F20.459190614711357
sg495
F0.07868953634660977
ssF6.0
(dp996
g494
F22.673107457541818
sg495
F0.08293346639676401
ssF7.0
(dp997
g494
F24.670407037395652
sg495
F0.08010417969666118
ssF8.0
(dp998
g494
F26.650907727467633
sg495
F0.08912253105323893
ssF9.0
(dp999
g494
F28.442199869470233
sg495
F0.08417127932805898
ssF10.0
(dp1000
g494
F30.387334475790922
sg495
F0.08505543142184112
ssF11.0
(dp1001
g494
F32.381981599363414
sg495
F0.08364078807178972
ssF12.0
(dp1002
g494
F34.39873252528046
sg495
F0.0843481097468154
ssF13.0
(dp1003
g494
F36.68426568770727
sg495
F0.08505543142184112
ssF14.0
(dp1004
g494
F39.14751342098429
sg495
F0.07621391048401979
ssF15.0
(dp1005
g494
F41.52765085744579
sg495
F0.06401261158982638
ssF16.0
(dp1006
g494
F43.69736009558714
sg495
F0.04597590887667088
ssssI7
(dp1007
g3
I17
sg4
I23
sg5
I2
sg6
I18
sg7
I24
sg8
I0
sg9
g988
sg11
(dp1008
F2.0
(dp1009
g494
F4.575766747994479
sg495
F0.06767076923016944
ssF3.0
(dp1010
g494
F6.668036449702779
sg495
F0.07250439560375298
ssF4.0
(dp1011
g494
F9.141241944186353
sg495
F0.08217164835092003
ssF5.0
(dp1012
g494
F12.201387784033638
sg495
F0.08493372056439634
ssF6.0
(dp1013
g494
F15.334038019484684
sg495
F0.08746562009341628
ssF7.0
(dp1014
g494
F18.467839118358004
sg495
F0.08585441130222178
ssF8.0
(dp1015
g494
F21.363411488818997
sg495
F0.09275959183591254
ssF9.0
(dp1016
g494
F23.987380091621485
sg495
F0.08884665620015443
ssF10.0
(dp1017
g494
F26.40534414183553
sg495
F0.09229924646699982
ssF11.0
(dp1018
g494
F28.68060112768664
sg495
F0.09275959183591254
ssF12.0
(dp1019
g494
F30.91903048402472
sg495
F0.09989494505405966
ssF13.0
(dp1020
g494
F33.51422750127016
sg495
F0.09206907378254346
ssF14.0
(dp1021
g494
F36.21990740705467
sg495
F0.09091821036026167
ssF15.0
(dp1022
g494
F39.36982059383993
sg495
F0.09759321820949607
ssF16.0
(dp1023
g494
F42.32638872568186
sg495
F0.07089318681255846
sssssI8
(dp1024
I0
(dp1025
g3
I16
sg4
I23
sg5
I1
sg6
I18
sg7
I24
sg8
I0
sg9
S'30'
p1026
sg11
(dp1027
F0.0
(dp1028
g494
F3.073445366573479
sg495
F0.06781932561837847
ssF1.0
(dp1029
g494
F4.877439428022346
sg495
F0.07645087615162664
ssF2.0
(dp1030
g494
F7.161101083390288
sg495
F0.0769441076106694
ssF3.0
(dp1031
g494
F10.055136669323643
sg495
F0.08187642220109692
ssF4.0
(dp1032
g494
F13.303065827120164
sg495
F0.08261626938966106
ssF5.0
(dp1033
g494
F16.81610689415217
sg495
F0.09642675024285813
ssF6.0
(dp1034
g494
F20.1367876921575
sg495
F0.09963275472663602
ssF7.0
(dp1035
g494
F23.292235951383514
sg495
F0.09544028732477262
ssF8.0
(dp1036
g494
F25.984046639109337
sg495
F0.32257337421396015
ssF9.0
(dp1037
g494
F28.78806748376738
sg495
F0.10037260191520016
ssF10.0
(dp1038
g494
F31.2998486889426
sg495
F0.10160568056280703
ssF11.0
(dp1039
g494
F33.78573524251807
sg495
F0.09445382440668712
ssF12.0
(dp1040
g494
F36.28395258256961
sg495
F0.10308537493993528
ssF13.0
(dp1041
g494
F38.996725607304754
sg495
F0.08828843116865272
ssF14.0
(dp1042
g494
F41.52083759895604
sg495
F0.08409596376678932
ssF15.0
(dp1043
g494
F44.01535570306476
sg495
F0.07719072334019077
ssF16.0
(dp1044
g494
F46.218867246338256
sg495
F0.07719072334019077
ssF17.0
(dp1045
g494
F47.634441533790955
sg495
F0.11073046255509796
ssF18.0
(dp1046
g494
F48.40758184584047
sg495
F0.13169279956441493
ssssI1
(dp1047
g3
I15
sg4
I23
sg5
I2
sg6
I18
sg7
I24
sg8
I0
sg9
g1026
sg11
(dp1048
F0.0
(dp1049
g494
F10.054182218046652
sg495
F0.07030088366830896
ssF1.0
(dp1050
g494
F12.393573205653091
sg495
F0.07049947373516857
ssF2.0
(dp1051
g494
F14.616789004146646
sg495
F0.16800719656324684
ssF3.0
(dp1052
g494
F16.78241368325091
sg495
F0.07169101413632636
ssF4.0
(dp1053
g494
F18.486316456906533
sg495
F0.22261946494964502
ssF5.0
(dp1054
g494
F20.192205131230754
sg495
F0.06910934326715117
ssF6.0
(dp1055
g494
F21.46516745980098
sg495
F0.25796849685065915
ssF7.0
(dp1056
g494
F22.80267156010059
sg495
F0.062357280993923764
ssF8.0
(dp1057
g494
F24.005134414935647
sg495
F0.0659319021973971
ssF9.0
(dp1058
g494
F25.297955750191836
sg495
F0.06950652340087043
ssF10.0
(dp1059
g494
F26.480559598340932
sg495
F0.07069806380202821
ssF11.0
(dp1060
g494
F27.672099999498712
sg495
F0.34356081566715957
ssF12.0
(dp1061
g494
F29.153581898271547
sg495
F0.3679873938908941
ssF13.0
(dp1062
g494
F30.798900602203584
sg495
F0.07367691480492265
ssF14.0
(dp1063
g494
F32.454148809478596
sg495
F0.0673220326654145
ssF15.0
(dp1064
g494
F34.21067795085202
sg495
F0.07764871614211526
ssF16.0
(dp1065
g494
F36.14494520206482
sg495
F0.07486845520608043
ssssI2
(dp1066
g3
I13
sg4
I23
sg5
I1
sg6
I20
sg7
I24
sg8
I0
sg9
S'26'
p1067
sg11
(dp1068
F0.0
(dp1069
g494
F12.421433154195059
sg495
F0.08666520535335166
ssF1.0
(dp1070
g494
F15.191768278880367
sg495
F0.0906899052923618
ssF2.0
(dp1071
g494
F17.760868406615174
sg495
F0.38395637418156725
ssF3.0
(dp1072
g494
F19.853712374900446
sg495
F0.09417797857283725
ssF4.0
(dp1073
g494
F21.808374978613035
sg495
F0.08720183201188635
ssF5.0
(dp1074
g494
F23.3417856553759
sg495
F0.09578785854844131
ssF6.0
(dp1075
g494
F24.880562598724108
sg495
F0.0893483386460251
ssF7.0
(dp1076
g494
F26.17919911237805
sg495
F0.09498291856063928
ssF8.0
(dp1077
g494
F27.375876560910395
sg495
F0.1014224384630555
ssF9.0
(dp1078
g494
F28.678537774503344
sg495
F0.08773845867042103
ssF10.0
(dp1079
g494
F29.950342955230546
sg495
F0.10008087181671879
ssF11.0
(dp1080
g494
F31.286543334981914
sg495
F0.09659279853624334
ssF12.0
(dp1081
g494
F32.717994946623186
sg495
F0.09739773852404536
ssF13.0
(dp1082
g494
F34.20445079076426
sg495
F0.1014224384630555
ssF14.0
(dp1083
g494
F35.80225666655129
sg495
F0.10437388508499627
ssF15.0
(dp1084
g494
F37.440309541728425
sg495
F0.09847099184111473
ssF16.0
(dp1085
g494
F39.653894508183996
sg495
F0.09712942519477802
ssF17.0
(dp1086
g494
F41.69978364384749
sg495
F0.09417797857283725
ssF18.0
(dp1087
g494
F43.76847941249869
sg495
F0.10088581180452082
ssF19.0
(dp1088
g494
F45.920352313222786
sg495
F0.09766605185331272
ssF20.0
(dp1089
g494
F47.883064316813396
sg495
F1.9246115108346487
ssssI3
(dp1090
g3
I15
sg4
I23
sg5
I2
sg6
I17
sg7
I24
sg8
I0
sg9
g1067
sg11
(dp1091
F0.0
(dp1092
g494
F10.95069627928674
sg495
F0.15018231418122227
ssF1.0
(dp1093
g494
F14.00584541413931
sg495
F0.10506581650538183
ssF2.0
(dp1094
g494
F17.18357133491483
sg495
F0.20250921102900069
ssF3.0
(dp1095
g494
F20.50653529615367
sg495
F0.11001009022328215
ssF4.0
(dp1096
g494
F23.548293689686936
sg495
F0.37761890520463703
ssF5.0
(dp1097
g494
F26.534429003893813
sg495
F0.09558929187940621
ssF6.0
(dp1098
g494
F29.127082534717793
sg495
F0.10382974807590675
ssF7.0
(dp1099
g494
F31.456041467253762
sg495
F0.10856801038889455
ssF8.0
(dp1100
g494
F33.61813116181058
sg495
F0.4227354028804775
ssF9.0
(dp1101
g494
F36.00271317367293
sg495
F0.10547783931520686
ssF10.0
(dp1102
g494
F38.41098649710021
sg495
F0.10733194195941947
ssF11.0
(dp1103
g494
F40.96964814611363
sg495
F0.12134071749347039
ssF12.0
(dp1104
g494
F43.58908315957624
sg495
F0.1168084665853951
ssF13.0
(dp1105
g494
F46.606120184519995
sg495
F0.1046537936955568
ssF14.0
(dp1106
g494
F49.73852359621476
sg495
F0.10527182791029435
ssssI4
(dp1107
g3
I18
sg4
I23
sg5
I1
sg6
I17
sg7
I24
sg8
I0
sg9
S'27'
p1108
sg11
(dp1109
F0.0
(dp1110
g494
F3.060026693113495
sg495
Fnan
ssF1.0
(dp1111
g494
F4.67207473088168
sg495
F0.06364197664134924
ssF2.0
(dp1112
g494
F6.615254880616277
sg495
F0.059119196575466555
ssF3.0
(dp1113
g494
F8.804765016081987
sg495
F0.07042614674017328
ssF4.0
(dp1114
g494
F11.4336309293763
sg495
F0.07672573326050987
ssF5.0
(dp1115
g494
F13.960734291188253
sg495
F0.15151313220707002
ssF6.0
(dp1116
g494
F16.638058562331306
sg495
F0.08480212623530038
ssF7.0
(dp1117
g494
F18.93336944576677
sg495
F0.08302531978084646
ssF8.0
(dp1118
g494
F20.99284965433835
sg495
F0.08496365409479618
ssF9.0
(dp1119
g494
F22.831844334698147
sg495
F0.08738657198723335
ssF10.0
(dp1120
g494
F24.67891540803274
sg495
F0.08124851332639256
ssF11.0
(dp1121
g494
F26.399994750960598
sg495
F0.08593282125177105
ssF12.0
(dp1122
g494
F28.380326308379228
sg495
F0.08528670981378782
ssF13.0
(dp1123
g494
F30.57791283681973
sg495
F0.0898094898796705
ssF14.0
(dp1124
g494
F32.69796599270224
sg495
F0.400912147268601
ssF15.0
(dp1125
g494
F35.350253445623444
sg495
F0.07187989747563556
ssF16.0
(dp1126
g494
F37.87008805375808
sg495
F0.06687253383126544
ssF17.0
(dp1127
g494
F39.89968560832293
sg495
F0.49863650226356626
ssssI5
(dp1128
g3
I17
sg4
I23
sg5
I2
sg6
I17
sg7
I24
sg8
I0
sg9
g1108
sg11
(dp1129
F0.0
(dp1130
g494
F5.277763004748163
sg495
F0.06936234089387244
ssF1.0
(dp1131
g494
F7.134474446968284
sg495
F0.07139245818832725
ssF2.0
(dp1132
g494
F9.360836413220385
sg495
F0.07206916395314551
ssF3.0
(dp1133
g494
F11.961078314534578
sg495
F0.07765198651289623
ssF4.0
(dp1134
g494
F14.589234328647526
sg495
F0.16207103067397513
ssF5.0
(dp1135
g494
F17.218236224966493
sg495
F0.07494516345362315
ssF6.0
(dp1136
g494
F19.51988170755463
sg495
F0.0803588095721693
ssF7.0
(dp1137
g494
F21.67180603967672
sg495
F0.0906785724856479
ssF8.0
(dp1138
g494
F23.699385687513455
sg495
F0.07782116295410078
ssF9.0
(dp1139
g494
F25.55186771870346
sg495
F0.080866338895783
ssF10.0
(dp1140
g494
F27.304535649582775
sg495
F0.08881763163239764
ssF11.0
(dp1141
g494
F29.32873176859542
sg495
F0.09829151233985339
ssF12.0
(dp1142
g494
F31.39099258687909
sg495
F0.09490798351576206
ssF13.0
(dp1143
g494
F33.75946276374303
sg495
F0.09287786622130725
ssF14.0
(dp1144
g494
F36.27680820886698
sg495
F0.09101692536805701
ssF15.0
(dp1145
g494
F39.12743124316393
sg495
F0.0906785724856479
ssF16.0
(dp1146
g494
F41.98143780628498
sg495
F0.07748281007169167
ssssI6
(dp1147
g3
I16
sg4
I23
sg5
I1
sg6
I23
sg7
I24
sg8
I0
sg9
S'29'
p1148
sg11
(dp1149
F2.0
(dp1150
g494
F4.311193256842888
sg495
F0.07177994071726676
ssF3.0
(dp1151
g494
F6.104744809857443
sg495
F0.06496179331404353
ssF4.0
(dp1152
g494
F8.566853594354718
sg495
F0.06666633016484934
ssF5.0
(dp1153
g494
F11.377445468350071
sg495
F0.06893904596592375
ssF6.0
(dp1154
g494
F14.187090377428312
sg495
F0.07253751265095823
ssF7.0
(dp1155
g494
F16.88499342628706
sg495
F0.18181726408595272
ssF8.0
(dp1156
g494
F19.256193578741357
sg495
F0.0662875441980036
ssF9.0
(dp1157
g494
F21.240085080095895
sg495
F0.0651511862974664
ssF10.0
(dp1158
g494
F22.90295547454867
sg495
F0.07102236878357529
ssF11.0
(dp1159
g494
F24.44650828944504
sg495
F0.07140115475042103
ssF12.0
(dp1160
g494
F26.04498506953404
sg495
F0.0744314424851869
ssF13.0
(dp1161
g494
F27.512780691061263
sg495
F0.07935566005418146
ssF14.0
(dp1162
g494
F29.0212958040244
sg495
F0.0721587266841125
ssF15.0
(dp1163
g494
F30.71257514599061
sg495
F0.07802990917022139
ssF16.0
(dp1164
g494
F32.62828517331292
sg495
F0.07821930215364425
ssF17.0
(dp1165
g494
F34.695509587373515
sg495
F0.06931783193276948
ssF18.0
(dp1166
g494
F36.66046179038576
sg495
F0.08636320044082754
ssF19.0
(dp1167
g494
F38.848897713837
sg495
F0.08427987762317601
ssF20.0
(dp1168
g494
F41.3195291825883
sg495
F0.5259443149653028
ssssI7
(dp1169
g3
I17
sg4
I23
sg5
I2
sg6
I17
sg7
I24
sg8
I0
sg9
g1148
sg11
(dp1170
F0.0
(dp1171
g494
F5.686111983511641
sg495
F0.06914676575457039
ssF1.0
(dp1172
g494
F7.983846125045506
sg495
F0.07258262989144344
ssF2.0
(dp1173
g494
F10.511353680732755
sg495
F0.0818165147592898
ssF3.0
(dp1174
g494
F13.510218847697269
sg495
F0.07558901101120738
ssF4.0
(dp1175
g494
F16.661550485735535
sg495
F0.07365633743421628
ssF5.0
(dp1176
g494
F19.96856971747586
sg495
F0.08160177325073523
ssF6.0
(dp1177
g494
F22.812820998281087
sg495
F0.07644797704542565
ssF7.0
(dp1178
g494
F25.677472722399003
sg495
F0.07430056195987998
ssF8.0
(dp1179
g494
F28.069693127696873
sg495
F0.08095754872507153
ssF9.0
(dp1180
g494
F30.366353561687962
sg495
F0.38846738897521066
ssF10.0
(dp1181
g494
F32.760721382071374
sg495
F0.07494478648554369
ssF11.0
(dp1182
g494
F35.10891977811556
sg495
F0.06871728273746125
ssF12.0
(dp1183
g494
F37.44960222136034
sg495
F0.07923961665663501
ssF13.0
(dp1184
g494
F39.853633409628706
sg495
F0.5029246130347945
ssF14.0
(dp1185
g494
F42.7429804072304
sg495
F0.08224599777639893
sssssI9
(dp1186
I0
(dp1187
g3
I18
sg4
I23
sg5
I1
sg6
I18
sg7
I24
sg8
I0
sg9
g410
sg11
(dp1188
F1.0
(dp1189
g494
F1.441763901215189
sg495
F0.02484328986011926
ssF2.0
(dp1190
g494
F3.5046442199572336
sg495
F0.07748740408751485
ssF3.0
(dp1191
g494
F6.2107882940059405
sg495
F0.08724726796113313
ssF4.0
(dp1192
g494
F9.635613253293814
sg495
F0.08754302141184883
ssF5.0
(dp1193
g494
F13.217187541461003
sg495
F0.10026041979262418
ssF6.0
(dp1194
g494
F16.95403239125395
sg495
F0.10292220084906552
ssF7.0
(dp1195
g494
F20.343366936455933
sg495
F0.10587973535622257
ssF8.0
(dp1196
g494
F23.621793937639527
sg495
F0.10469672155335975
ssF9.0
(dp1197
g494
F26.363428425774114
sg495
F0.10913302331409533
ssF10.0
(dp1198
g494
F29.00154920615821
sg495
F0.10913302331409533
ssF11.0
(dp1199
g494
F31.45334531259141
sg495
F0.10913302331409533
ssF12.0
(dp1200
g494
F34.1875859644581
sg495
F0.11504809232840944
ssF13.0
(dp1201
g494
F36.85528208991377
sg495
F0.11386507852554663
ssF14.0
(dp1202
g494
F39.79063508826715
sg495
F0.11356932507483092
ssF15.0
(dp1203
g494
F42.90344015704994
sg495
F0.10173918704620269
ssF16.0
(dp1204
g494
F46.10792879555462
sg495
F0.0854727472568389
ssF17.0
(dp1205
g494
F48.69872902382419
sg495
F0.07275534887606355
ssF18.0
(dp1206
g494
F50.51169767671148
sg495
F0.091387816271153
ssssI1
(dp1207
g3
I18
sg4
I23
sg5
I2
sg6
I18
sg7
I24
sg8
I0
sg9
g410
sg11
(dp1208
F0.0
(dp1209
g494
F5.323440205150501
sg495
F0.08352286810558647
ssF1.0
(dp1210
g494
F7.367688180697721
sg495
F0.07802341999986884
ssF2.0
(dp1211
g494
F10.044372688402476
sg495
F0.0769922734800468
ssF3.0
(dp1212
g494
F12.833624024521132
sg495
F0.07596112696022472
ssF4.0
(dp1213
g494
F15.97776162121188
sg495
F0.07561741145361738
ssF5.0
(dp1214
g494
F18.95777506349762
sg495
F0.07441440718049164
ssF6.0
(dp1215
g494
F21.665393966797033
sg495
F0.07957013977960191
ssF7.0
(dp1216
g494
F24.051638871418575
sg495
F0.08317915259897911
ssF8.0
(dp1217
g494
F25.943792735292043
sg495
F0.08592887665183792
ssF9.0
(dp1218
g494
F28.05678381216074
sg495
F0.07596112696022472
ssF10.0
(dp1219
g494
F30.030570108853457
sg495
F0.08541330339192689
ssF11.0
(dp1220
g494
F32.12465683285875
sg495
F0.08558516114523058
ssF12.0
(dp1221
g494
F34.504027427348134
sg495
F0.08489773013201588
ssF13.0
(dp1222
g494
F36.72700746633119
sg495
F0.6418887085892293
ssF14.0
(dp1223
g494
F39.67694580178878
sg495
F0.09142832475755555
ssssI2
(dp1224
g3
I15
sg4
I23
sg5
I1
sg6
I18
sg7
I24
sg8
I0
sg9
g243
sg11
(dp1225
F0.0
(dp1226
g494
F12.979324774405892
sg495
F0.06809894426486708
ssF1.0
(dp1227
g494
F15.247755823228827
sg495
F0.06791489306415122
ssF2.0
(dp1228
g494
F17.246551863003038
sg495
F0.06257740824339136
ssF3.0
(dp1229
g494
F19.147800766397836
sg495
F0.06662653465914022
ssF4.0
(dp1230
g494
F20.884323845151947
sg495
F0.06423386904983408
ssF5.0
(dp1231
g494
F22.37329805894323
sg495
F0.06791489306415122
ssF6.0
(dp1232
g494
F23.668098255979285
sg495
F0.06662653465914022
ssF7.0
(dp1233
g494
F24.98498459710124
sg495
F0.0658903298562768
ssF8.0
(dp1234
g494
F26.30831273024825
sg495
F0.06055284503551694
ssF9.0
(dp1235
g494
F27.617837023341576
sg495
F0.06607438105699265
ssF10.0
(dp1236
g494
F29.02766922082504
sg495
F0.06681058585985607
ssF11.0
(dp1237
g494
F30.316027625836035
sg495
F0.37491229585820063
ssF12.0
(dp1238
g494
F32.12893195288723
sg495
F0.06441792025054993
ssF13.0
(dp1239
g494
F33.56085029445659
sg495
F0.5943013271115021
ssF14.0
(dp1240
g494
F35.71608985483928
sg495
F0.0662584322577085
ssF15.0
(dp1241
g494
F37.771941766835404
sg495
F0.06441792025054993
ssF16.0
(dp1242
g494
F40.05325639970845
sg495
F0.06552222745484508
ssssI3
(dp1243
g3
I16
sg4
I23
sg5
I2
sg6
I17
sg7
I24
sg8
I0
sg9
g243
sg11
(dp1244
F0.0
(dp1245
g494
F5.233320103218222
sg495
F0.06682952884549566
ssF1.0
(dp1246
g494
F7.111314458116964
sg495
F0.07120023642821795
ssF2.0
(dp1247
g494
F9.501104571895768
sg495
F0.07895471762337039
ssF3.0
(dp1248
g494
F12.043869451069847
sg495
F0.07909570819055499
ssF4.0
(dp1249
g494
F14.88553433267526
sg495
F0.07965967045929336
ssF5.0
(dp1250
g494
F17.35498411691335
sg495
F0.19498995441628797
ssF6.0
(dp1251
g494
F19.93299663788358
sg495
F0.09601457625270579
ssF7.0
(dp1252
g494
F22.050674956996122
sg495
F0.09643754795425956
ssF8.0
(dp1253
g494
F23.880732519052103
sg495
F0.2860698608175331
ssF9.0
(dp1254
g494
F25.932145271587885
sg495
F0.08685018938570745
ssF10.0
(dp1255
g494
F27.994837269498436
sg495
F0.09206684037153727
ssF11.0
(dp1256
g494
F30.098416531892518
sg495
F0.0888240573262917
ssF12.0
(dp1257
g494
F32.56927622180246
sg495
F0.0874141516544458
ssF13.0
(dp1258
g494
F35.15645312963969
sg495
F0.08910603846066088
ssF14.0
(dp1259
g494
F38.01503687930725
sg495
F0.08121056669832384
ssssI4
(dp1260
g3
I17
sg4
I23
sg5
I1
sg6
I18
sg7
I24
sg8
I0
sg9
S'12'
p1261
sg11
(dp1262
F0.0
(dp1263
g494
F5.219722156068355
sg495
F0.06529780354936336
ssF1.0
(dp1264
g494
F7.201660908786161
sg495
F0.06193558602243138
ssF2.0
(dp1265
g494
F9.432226799679725
sg495
F0.062289503656845276
ssF3.0
(dp1266
g494
F11.940618033588198
sg495
F0.1357274127977282
ssF4.0
(dp1267
g494
F14.629507261047753
sg495
F0.06671347408701894
ssF5.0
(dp1268
g494
F17.16178793527916
sg495
F0.06635955645260505
ssF6.0
(dp1269
g494
F19.24370841971889
sg495
F0.22438378021840855
ssF7.0
(dp1270
g494
F21.192909791253406
sg495
F0.25924466720817707
ssF8.0
(dp1271
g494
F22.995235344506156
sg495
F0.0635282153772939
ssF9.0
(dp1272
g494
F24.642721932702834
sg495
F0.06812914462467452
ssF10.0
(dp1273
g494
F26.332678637029176
sg495
F0.06689043290422589
ssF11.0
(dp1274
g494
F28.113769132217097
sg495
F0.07096048569998567
ssF12.0
(dp1275
g494
F29.982454241922454
sg495
F0.060342956667568864
ssF13.0
(dp1276
g494
F32.02190461023252
sg495
F0.07007569161395093
ssF14.0
(dp1277
g494
F34.3701481145687
sg495
F0.06901393871070925
ssF15.0
(dp1278
g494
F36.728124353851264
sg495
F0.07202223860322736
ssF16.0
(dp1279
g494
F39.48691231410757
sg495
F0.0711374445171926
ssssI5
(dp1280
g3
I21
sg4
I23
sg5
I2
sg6
I17
sg7
I26
sg8
I0
sg9
g1261
sg11
(dp1281
F0.0
(dp1282
g494
F11.23785146118822
sg495
F0.07082565925294394
ssF1.0
(dp1283
g494
F13.711128450973566
sg495
F0.07550989597602226
ssF2.0
(dp1284
g494
F16.175973814657368
sg495
F0.06482983624740372
ssF3.0
(dp1285
g494
F18.380375616538018
sg495
F0.07326146234894466
ssF4.0
(dp1286
g494
F20.226901732775485
sg495
F0.06726563934340443
ssF5.0
(dp1287
g494
F22.133386079068355
sg495
F0.07007618137725143
ssF6.0
(dp1288
g494
F23.915269728527342
sg495
F0.0728867234110984
ssF7.0
(dp1289
g494
F25.638131995275543
sg495
F0.06670353093663504
ssF8.0
(dp1290
g494
F27.498710821682245
sg495
F0.0740109402246372
ssF9.0
(dp1291
g494
F29.558838132492085
sg495
F0.07326146234894466
ssF10.0
(dp1292
g494
F31.462511936751103
sg495
F0.3959116878345782
ssF11.0
(dp1293
g494
F33.764345862471785
sg495
F0.072324615004329
ssF12.0
(dp1294
g494
F36.107401071355554
sg495
F0.07194987606648275
ssF13.0
(dp1295
g494
F38.605972939445515
sg495
F0.07925728535448491
ssF14.0
(dp1296
g494
F40.922796422680044
sg495
F1.3093378488348473
ssssI6
(dp1297
g3
I18
sg4
I23
sg5
I1
sg6
I18
sg7
I24
sg8
I0
sg9
S'7'
p1298
sg11
(dp1299
F0.0
(dp1300
g494
F6.17843838437605
sg495
F0.06622348467393843
ssF1.0
(dp1301
g494
F8.296925444263076
sg495
F0.05957898788391116
ssF2.0
(dp1302
g494
F10.791933988918313
sg495
F0.06578051822126994
ssF3.0
(dp1303
g494
F13.464129114640944
sg495
F0.06888128338994934
ssF4.0
(dp1304
g494
F16.19390987921048
sg495
F0.07087463242695752
ssF5.0
(dp1305
g494
F18.65015885925723
sg495
F0.06799535048461236
ssF6.0
(dp1306
g494
F20.93032867436825
sg495
F0.07153908210596024
ssF7.0
(dp1307
g494
F22.879381066109584
sg495
F0.071317598879626
ssF8.0
(dp1308
g494
F24.754236577028944
sg495
F0.07574726340631084
ssF9.0
(dp1309
g494
F26.439723929432528
sg495
F0.06511606854226722
ssF10.0
(dp1310
g494
F28.24259739179326
sg495
F0.06998869952162055
ssF11.0
(dp1311
g494
F29.980133302385394
sg495
F0.06644496790027267
ssF12.0
(dp1312
g494
F32.06982754284897
sg495
F0.07463984727463964
ssF13.0
(dp1313
g494
F34.14844762199583
sg495
F0.07087463242695752
ssF14.0
(dp1314
g494
F36.48398824369041
sg495
F0.07530429695364235
ssF15.0
(dp1315
g494
F38.91476665270872
sg495
F0.07419688082197115
ssF16.0
(dp1316
g494
F41.757503862708724
sg495
F0.06888128338994934
ssssI7
(dp1317
g3
I16
sg4
I23
sg5
I2
sg6
I17
sg7
I24
sg8
I0
sg9
g1298
sg11
(dp1318
F0.0
(dp1319
g494
F14.581025548282106
sg495
F0.08646920499229216
ssF1.0
(dp1320
g494
F17.103435645000197
sg495
F0.0975128262820686
ssF2.0
(dp1321
g494
F19.497786728890027
sg495
F0.08881891164969138
ssF3.0
(dp1322
g494
F21.704161280187915
sg495
F0.09351832496448988
ssF4.0
(dp1323
g494
F23.683789139046777
sg495
F0.09163855963857048
ssF5.0
(dp1324
g494
F25.494238118572895
sg495
F0.09140358897283056
ssF6.0
(dp1325
g494
F27.14960645871066
sg495
F0.3179153107461176
ssF7.0
(dp1326
g494
F28.95770573157938
sg495
F0.08905388231543132
ssF8.0
(dp1327
g494
F30.711761751327913
sg495
F0.09774779694780852
ssF9.0
(dp1328
g494
F32.49988851760874
sg495
F0.09727785561632867
ssF10.0
(dp1329
g494
F34.42899768333352
sg495
F0.0975128262820686
ssF11.0
(dp1330
g494
F36.37572964898879
sg495
F0.09304838363301003
ssF12.0
(dp1331
g494
F38.70546379980014
sg495
F0.09868767961076821
ssF13.0
(dp1332
g494
F41.0081763240514
sg495
F0.09304838363301003
ssF14.0
(dp1333
g494
F43.32968650156185
sg495
F0.09539809029040927
sssssI10
(dp1334
I0
(dp1335
g3
I16
sg4
I23
sg5
I1
sg6
I18
sg7
I24
sg8
I0
sg9
S'20'
p1336
sg11
(dp1337
F0.0
(dp1338
g494
F10.158422966305997
sg495
F0.062439573400574586
ssF1.0
(dp1339
g494
F12.432634206690942
sg495
F0.05891265189050028
ssF2.0
(dp1340
g494
F14.672229365588121
sg495
F0.06701150869141163
ssF3.0
(dp1341
g494
F16.8275702884113
sg495
F0.07079968364667662
ssF4.0
(dp1342
g494
F18.751048778627748
sg495
F0.06400709407171871
ssF5.0
(dp1343
g494
F20.337510324548205
sg495
F0.06583586818805354
ssF6.0
(dp1344
g494
F21.729991187414576
sg495
F0.06910153625293715
ssF7.0
(dp1345
g494
F23.170803937641224
sg495
F0.06648900180103026
ssF8.0
(dp1346
g494
F24.5182185812122
sg495
F0.062439573400574586
ssF9.0
(dp1347
g494
F25.72847516605806
sg495
F0.3197742169134029
ssF10.0
(dp1348
g494
F27.198678928868663
sg495
F0.0654439880202675
ssF11.0
(dp1349
g494
F28.662351355549497
sg495
F0.06766464230438836
ssF12.0
(dp1350
g494
F30.297144788830234
sg495
F0.06531336129767217
ssF13.0
(dp1351
g494
F31.816986706227063
sg495
F0.5636543079989107
ssF14.0
(dp1352
g494
F33.882848324072434
sg495
F0.06949341642072318
ssF15.0
(dp1353
g494
F35.97026335114604
sg495
F0.07328159137598816
ssF16.0
(dp1354
g494
F38.20985851004321
sg495
F0.06675025524622095
ssF17.0
(dp1355
g494
F40.30380487324658
sg495
F0.049246274418444806
ssssI1
(dp1356
g3
I17
sg4
I23
sg5
I2
sg6
I17
sg7
I24
sg8
I0
sg9
g1336
sg11
(dp1357
F0.0
(dp1358
g494
F3.902287347356828
sg495
Fnan
ssF1.0
(dp1359
g494
F4.572832660079267
sg495
F0.11210828908854477
ssF2.0
(dp1360
g494
F6.553858826481798
sg495
F0.1232043313532813
ssF3.0
(dp1361
g494
F8.886897368179413
sg495
F0.11937810988268249
ssF4.0
(dp1362
g494
F12.171708500688478
sg495
F0.12301302027975133
ssF5.0
(dp1363
g494
F15.357037874961978
sg495
F0.1132561555297244
ssF6.0
(dp1364
g494
F18.75280943011841
sg495
F0.11096042264736512
ssF7.0
(dp1365
g494
F22.02996811968628
sg495
F0.1180389323679729
ssF8.0
(dp1366
g494
F24.860415452561742
sg495
F0.11593451055914356
ssF9.0
(dp1367
g494
F27.54929259102505
sg495
F0.11765631022091304
ssF10.0
(dp1368
g494
F30.174080519855817
sg495
F0.11631713270620345
ssF11.0
(dp1369
g494
F32.65538514353914
sg495
F0.12033466525033218
ssF12.0
(dp1370
g494
F35.36721961082604
sg495
F0.4507288892365383
ssF13.0
(dp1371
g494
F38.21010216348094
sg495
F0.11593451055914356
ssF14.0
(dp1372
g494
F41.39734464848974
sg495
F0.11937810988268249
ssF15.0
(dp1373
g494
F44.5606732493073
sg495
F0.1180389323679729
ssssI2
(dp1374
g3
I17
sg4
I23
sg5
I1
sg6
I17
sg7
I24
sg8
I0
sg9
g324
sg11
(dp1375
F1.0
(dp1376
g494
F4.558843847636757
sg495
F0.06519551003630113
ssF2.0
(dp1377
g494
F6.5188459196671795
sg495
F0.07197981438018017
ssF3.0
(dp1378
g494
F8.911554232166964
sg495
F0.07032510600362431
ssF4.0
(dp1379
g494
F11.649269241178647
sg495
F0.06685021841285699
ssF5.0
(dp1380
g494
F14.695587362417996
sg495
F0.07131793102955782
ssF6.0
(dp1381
g494
F17.98680232338761
sg495
F0.07231075605549135
ssF7.0
(dp1382
g494
F21.036429861380075
sg495
F0.07843317704874805
ssF8.0
(dp1383
g494
F23.67734443036323
sg495
F0.07214528521783577
ssF9.0
(dp1384
g494
F26.279373352497334
sg495
F0.07131793102955782
ssF10.0
(dp1385
g494
F28.927734109175
sg495
F0.07429640610735838
ssF11.0
(dp1386
g494
F31.399868423749464
sg495
F0.06767757260113492
ssF12.0
(dp1387
g494
F34.08463276471135
sg495
F0.07611658532156983
ssF13.0
(dp1388
g494
F36.94562354777644
sg495
F0.07396546443204721
ssF14.0
(dp1389
g494
F40.15079367316516
sg495
F0.08786501479511648
ssssI3
(dp1390
g3
I15
sg4
I23
sg5
I2
sg6
I17
sg7
I24
sg8
I0
sg9
g324
sg11
(dp1391
F0.0
(dp1392
g494
F5.576025864577105
sg495
F0.06819777157930916
ssF1.0
(dp1393
g494
F7.651691010465073
sg495
F0.07674572115055772
ssF2.0
(dp1394
g494
F10.103651762478654
sg495
F0.0843645457684097
ssF3.0
(dp1395
g494
F12.895672247435385
sg495
F0.08343542081501311
ssF4.0
(dp1396
g494
F15.820557600727822
sg495
F0.07897562103870952
ssF5.0
(dp1397
g494
F18.708277955884405
sg495
F0.08752357060995808
ssF6.0
(dp1398
g494
F21.39530732110732
sg495
F0.08287794584297516
ssF7.0
(dp1399
g494
F23.810103074985037
sg495
F0.1012746199202275
ssF8.0
(dp1400
g494
F25.97031859163209
sg495
F0.07916144602938882
ssF9.0
(dp1401
g494
F27.9800158658289
sg495
F0.3344849832227697
ssF10.0
(dp1402
g494
F30.185758505192386
sg495
F0.08789522059131671
ssF11.0
(dp1403
g494
F32.41937489315777
sg495
F0.0888243455447133
ssF12.0
(dp1404
g494
F34.68643977944543
sg495
F0.08938182051675123
ssF13.0
(dp1405
g494
F37.257328525493776
sg495
F0.08510784573112697
ssF14.0
(dp1406
g494
F40.113458632234874
sg495
F0.09384162029305483
ssssI4
(dp1407
g3
I16
sg4
I23
sg5
I1
sg6
I19
sg7
I24
sg8
I0
sg9
g204
sg11
(dp1408
F0.0
(dp1409
g494
F4.2279448603138405
sg495
F0.14186852114185974
ssF1.0
(dp1410
g494
F5.809850729196664
sg495
F0.10162795653432789
ssF2.0
(dp1411
g494
F8.377239812957814
sg495
F0.09587930444753763
ssF3.0
(dp1412
g494
F11.318291282360331
sg495
F0.09526337743823866
ssF4.0
(dp1413
g494
F14.358917618266183
sg495
F0.16753214652931628
ssF5.0
(dp1414
g494
F17.42418103454399
sg495
F0.09115719737624564
ssF6.0
(dp1415
g494
F20.404241214535446
sg495
F0.24390709568238697
ssF7.0
(dp1416
g494
F22.979842658420583
sg495
F0.1008067205219293
ssF8.0
(dp1417
g494
F25.31523256867913
sg495
F0.10039610251572997
ssF9.0
(dp1418
g494
F27.034695469638717
sg495
F0.4469576997479431
ssF10.0
(dp1419
g494
F28.92969756824851
sg495
F0.3555951933685978
ssF11.0
(dp1420
g494
F30.845230567168265
sg495
F0.10778722662731746
ssF12.0
(dp1421
g494
F32.70430359023562
sg495
F0.09916424849713207
ssF13.0
(dp1422
g494
F34.469961016892626
sg495
F0.41924098432949003
ssF14.0
(dp1423
g494
F36.678059345229386
sg495
F0.09362090541344145
ssF15.0
(dp1424
g494
F38.93132565424807
sg495
F0.08602447229875433
ssF16.0
(dp1425
g494
F41.27800755967709
sg495
F0.10758191762421782
ssF17.0
(dp1426
g494
F43.56617639922272
sg495
F0.7723724696608919
ssssI5
(dp1427
g3
I14
sg4
I23
sg5
I2
sg6
I19
sg7
I24
sg8
I0
sg9
g204
sg11
(dp1428
F0.0
(dp1429
g494
F4.614475784577734
sg495
F0.18931106976521814
ssF1.0
(dp1430
g494
F6.426453166616251
sg495
F0.10426097339779007
ssF2.0
(dp1431
g494
F9.117841084559206
sg495
F0.09978465253634648
ssF3.0
(dp1432
g494
F12.323073334722038
sg495
F0.09903859905943922
ssF4.0
(dp1433
g494
F15.785694034417874
sg495
F0.09437576482876883
ssF5.0
(dp1434
g494
F19.20914692657608
sg495
F0.11209453490531635
ssF6.0
(dp1435
g494
F22.393862706123958
sg495
F0.10743170067464594
ssF7.0
(dp1436
g494
F25.046082816529278
sg495
F0.2917069094707401
ssF8.0
(dp1437
g494
F27.79995271316322
sg495
F0.11172150816686272
ssF9.0
(dp1438
g494
F29.937395924502525
sg495
F0.10612610709005824
ssF10.0
(dp1439
g494
F31.870606996538474
sg495
F0.3651931769461055
ssF11.0
(dp1440
g494
F34.1535306358747
sg495
F0.09810603221330515
ssF12.0
(dp1441
g494
F36.52131785820912
sg495
F0.11377315522835768
ssF13.0
(dp1442
g494
F38.84993727300593
sg495
F0.12720211781268845
ssF14.0
(dp1443
g494
F41.39211449556743
sg495
F0.11172150816686272
ssF15.0
(dp1444
g494
F44.21406177196915
sg495
F0.12179323010511077
ssF16.0
(dp1445
g494
F47.58435835389771
sg495
F0.10519354024392415
ssssI6
(dp1446
g3
I18
sg4
I23
sg5
I1
sg6
I17
sg7
I24
sg8
I0
sg9
g134
sg11
(dp1447
F0.0
(dp1448
g494
F9.200778830179575
sg495
F0.06877019595422151
ssF1.0
(dp1449
g494
F11.720473714731792
sg495
F0.07215233673885536
ssF2.0
(dp1450
g494
F14.515249383100889
sg495
F0.07688733383734274
ssF3.0
(dp1451
g494
F17.31678933303926
sg495
F0.07079948042500182
ssF4.0
(dp1452
g494
F20.05745074885422
sg495
F0.07981852251735874
ssF5.0
(dp1453
g494
F22.46215284672888
sg495
F0.08410256751122827
ssF6.0
(dp1454
g494
F24.59966582261747
sg495
F0.28004125696768234
ssF7.0
(dp1455
g494
F26.66389908150566
sg495
F0.08680828013893535
ssF8.0
(dp1456
g494
F28.72587757987076
sg495
F0.08883756460971566
ssF9.0
(dp1457
g494
F30.735996586204806
sg495
F0.07981852251735874
ssF10.0
(dp1458
g494
F32.90620358967819
sg495
F0.09041589697587811
ssF11.0
(dp1459
g494
F35.02342372085898
sg495
F0.08545542382508181
ssF12.0
(dp1460
g494
F37.441654381872176
sg495
F0.0910923251328049
ssF13.0
(dp1461
g494
F40.06168610970187
sg495
F0.08500447172046396
ssF14.0
(dp1462
g494
F42.70426544276244
sg495
F0.5282903905598065
ssF15.0
(dp1463
g494
F45.6952052766403
sg495
F0.0795930464650498
ssssI7
(dp1464
g3
I17
sg4
I23
sg5
I2
sg6
I17
sg7
I24
sg8
I0
sg9
g134
sg11
(dp1465
F0.0
(dp1466
g494
F3.728005206919343
sg495
F0.0626323496795087
ssF1.0
(dp1467
g494
F5.346007573639982
sg495
F0.06852517827838721
ssF2.0
(dp1468
g494
F7.384084436194966
sg495
F0.08233123385290256
ssF3.0
(dp1469
g494
F9.862439778351868
sg495
F0.07222924196911085
ssF4.0
(dp1470
g494
F12.436764043404793
sg495
F0.08485673182385049
ssF5.0
(dp1471
g494
F15.076751255702364
sg495
F0.07559657259704142
ssF6.0
(dp1472
g494
F17.668754006551925
sg495
F0.0772802379110067
ssF7.0
(dp1473
g494
F19.79859062871801
sg495
F0.07290270809469696
ssF8.0
(dp1474
g494
F21.81393800953446
sg495
F0.08047920200754076
ssF9.0
(dp1475
g494
F23.677755512094038
sg495
F0.08098430160173033
ssF10.0
(dp1476
g494
F25.515476202287143
sg495
F0.08266796691569563
ssF11.0
(dp1477
g494
F27.40539051721318
sg495
F0.07643840525402407
ssF12.0
(dp1478
g494
F29.368544273296706
sg495
F0.08216286732150603
ssF13.0
(dp1479
g494
F31.52784503845719
sg495
F0.08586693101222967
ssF14.0
(dp1480
g494
F33.99273105810237
sg495
F0.08334143304128175
ssF15.0
(dp1481
g494
F36.77246249145906
sg495
F0.07879553669357546
sssss.